A51 MACRO ASSEMBLER  JC                                                                   12/18/2017 16:56:46 PAGE     1


MACRO ASSEMBLER A51 V8.02c
NO OBJECT MODULE REQUESTED
ASSEMBLER INVOKED BY: C:\Keil_v5\C51\BIN\A51.EXE Src\JC.asm SET(SMALL) DEBUG PRINT(.\Listings\JC.lst) OBJECT(.\Objects\J
                      C.obj) EP

LOC  OBJ            LINE     SOURCE

                       1     ;***************************************************************************************
                       2     ;---------------------modify_19_01-------------------------
  0006                 3     MAXVP_JUDGE_NUM EQU     6
                       4     ;---------------------modify_19_01-------------------------
                       5     ;*****************************程序标志位***********************************************
                       6     ;FLAG           EQU     0FE97H     ;标志寄存器，与电源开关用寄存器PKEY合用
                       7     SBFLAG          EQU     0FE92H.1
*** _________________________________________________^
*** ERROR #A17 IN 7 (Src\JC.asm, LINE 7): INVALID BYTE BASE IN BIT ADDRESS EXPRESSION
                       8     MAXV072         EQU     0FE92H.3
*** _________________________________________________^
*** ERROR #A17 IN 8 (Src\JC.asm, LINE 8): INVALID BYTE BASE IN BIT ADDRESS EXPRESSION
                       9     ;**************************************************************************************
                      10     HRERR_1                 EQU             0FE3EH.2
*** _________________________________________________________________^
*** ERROR #A17 IN 10 (Src\JC.asm, LINE 10): INVALID BYTE BASE IN BIT ADDRESS EXPRESSION
                      11     AB                              EQU     0FE8FH.1       
*** _________________________^
*** ERROR #A9 IN 11 (Src\JC.asm, LINE 11): SYNTAX ERROR
                      12     ;---------------------modify_22_01-------------------------
                      13     HRERR                   EQU     0FE8FH.4
*** _________________________________________________________^
*** ERROR #A17 IN 13 (Src\JC.asm, LINE 13): INVALID BYTE BASE IN BIT ADDRESS EXPRESSION
                      14     ;---------------------modify_22_01-------------------------
                      15     FIRST8          EQU     0FE8FH.5
*** _________________________________________________^
*** ERROR #A17 IN 15 (Src\JC.asm, LINE 15): INVALID BYTE BASE IN BIT ADDRESS EXPRESSION
                      16     NEGF            EQU     0FE8FH.6
*** _________________________________________________^
*** ERROR #A17 IN 16 (Src\JC.asm, LINE 16): INVALID BYTE BASE IN BIT ADDRESS EXPRESSION
                      17     IHB              EQU     0FE8FH.6
*** __________________________________________________^
*** ERROR #A17 IN 17 (Src\JC.asm, LINE 17): INVALID BYTE BASE IN BIT ADDRESS EXPRESSION
                      18     
                      19     ;**************************************************************************************
                      20     ;?据存储区定义
  FD80                21     BUFL                    EQU             0FD80H
  FD86                22     BUFH                    EQU             0FD86H
  FDB0                23     BUF2L                   EQU             0FDB0H
  FDD0                24     BUF2H                   EQU             0FDD0H
  FD50                25     HRBUF           EQU     0FD50H
  FD00                26     HRBUF1                  EQU             0FD00H
  FDC0                27     BPDATAP         EQU     0FDC0H
  FDA0                28     BPDATAV                 EQU     0FDA0H
  F400                29     YBUF                    EQU             0F400H
                      30     ;**************************************************************************************
                      31     ;?据存储区长度
  0006                32     BUFLEN                  EQU             06H
  0020                33     BPLEN           EQU     20H
                      34     ;**************************************************************************************
                      35     ;?程参?
  0048                36     DIAXISHU        EQU     48H
                      37     ;**************************************************************************************
                      38     ;>>>>>>检测状态用立即?
  0000                39     FFRE        EQU     0       ;FIND-FIRST-RISING-EDAGE
  0002                40     FP          EQU     2       ;FIND-PEAK1
  0003                41     FEP         EQU     3       ;FINE-END-POINT
A51 MACRO ASSEMBLER  JC                                                                   12/18/2017 16:56:46 PAGE     2

  0001                42     FRE         EQU     1       ;FIND-RISING-EDAGE
                      43     ;**************************************************************************************
                      44     ;通用寄存器定义
  FE20                45     PA0                     EQU             0FE20H
  FE21                46     PA1                     EQU             0FE21H
  FE22                47     PA2                     EQU             0FE22H
  FE23                48     PA3                     EQU             0FE23H
  FE24                49     PA4                     EQU             0FE24H
  FE25                50     PA5                     EQU             0FE25H
  FE26                51     PA6                     EQU             0FE26H
  FE27                52     PA7                     EQU             0FE27H
                      53     ;**************************************************************************************
  FE28                54     IPTR            EQU             0FE28H
  FE29                55     OPTR            EQU             0FE29H
  FE2A                56     IPTR2           EQU             0FE2AH
  FE2B                57     FLCKSR          EQU             0FE2BH
  FE2C                58     Y                       EQU             0FE2CH
  FE2D                59     TBEEP           EQU         0FE2DH
  FE2E                60     TLB                     EQU         0FE2EH
  FE2E                61     WCUT        EQU     0FE2EH     ;复用
  FE2F                62     UPCTER          EQU         0FE2FH
                      63     ;**************************************************************************************
  FE30                64     ZEROL           EQU             0FE30H
  FE31                65     ZEROH           EQU             0FE31H
  FE32                66     PWIDTHL         EQU             0FE32H
  FE33                67     PWIDTHH         EQU             0FE33H
  FE34                68     MAXL            EQU             0FE34H
  FE35                69     MAXH            EQU             0FE35H
  FE34                70     PEAKPL          EQU             0FE34H
  FE35                71     PEAKPH          EQU             0FE35H
  FE36                72     MINL            EQU             0FE36H
  FE37                73     MINH            EQU             0FE37H
  FE36                74     STARTPL     EQU     0FE36H ;起始点
  FE37                75     STARTPH     EQU     0FE37H
                      76     ;**************************************************************************************
  FE38                77     OFFCL       EQU     0FE38H
  FE39                78     OFFCH       EQU     0FE39H
  FE3A                79     LASTL       EQU     0FE3AH
  FE3B                80     LASTH       EQU     0FE3BH
  FE3C                81     FKMODE          EQU     0FE3CH
  FE3D                82     MPT                     EQU             0FE3DH
  FE3E                83     PWMF            EQU             0FE3EH
  FE3F                84     SBEEP           EQU             0FE3FH
                      85     ;**************************************************************************************
  FE40                86     H_HEART_C       EQU             0FE40H
  FE41                87     HEARTCNT        EQU             0FE41H
  FE42                88     JCDFLAG     EQU         0FE42H
  FE43                89     PHASE           EQU             0FE43H
  FE44                90     COUNT           EQU             0FE44H
  FE45                91     COUNT1          EQU             0FE45H
  FE46                92     RTCOUNTL    EQU         0FE46H
  FE47                93     BPPTR           EQU             0FE47H
                      94     ;**************************************************************************************
  FE48                95     DISPTIME        EQU             0FE48H
  FE49                96     BPTR            EQU             0FE49H
  FE4A                97     BEGINPH     EQU     0FE4AH
  FE4B                98     BEGINPL     EQU     0FE4BH
  FE4C                99     FTIME           EQU             0FE4CH
  FE4D               100     FUNMOD          EQU             0FE4DH
  FE4E               101     MODECNT         EQU             0FE4EH
  FE4F               102     VAVG            EQU             0FE4FH
                     103     ;**************************************************************************************
                     104     
  FE50               105     MAXSTART    EQU     0FE50H      ;150mmHg;XE
  FE51               106     MAXSTM      EQU     0FE51H
  FE52               107     MAXSTH      EQU     0FE52H
A51 MACRO ASSEMBLER  JC                                                                   12/18/2017 16:56:46 PAGE     3

                     108     
  FE54               109     MAXSTEP     EQU     0FE54H      ;50 mmHg;^?XE
  FE55               110     MAXSTPM     EQU     0FE55H
  FE53               111     MAXSTPH     EQU     0FE53H
                     112     
  FE56               113     MAXEND      EQU     0FE56H      ;300mmHg;XE
  FE57               114     MAXEDM      EQU     0FE57H
  FE58               115     MAXEDH      EQU     0FE58H
                     116     
  FE5A               117     MAXPRE          EQU             0FE5AH
  FE5B               118     MAXPEM      EQU         0FE5BH
  FE59               119     MAXPEH      EQU     0FE59H
                     120     
  FE5C               121     PB0         EQU     0FE5CH
  FE5D               122     PB1         EQU     0FE5DH
  FE5E               123     PB2         EQU     0FE5EH
  FE5F               124     PB3         EQU     0FE5FH
                     125     ;**************************************************************************增加  小梁2012.12.19
  FE60               126     MAXVP           EQU             0FE60H
  FE61               127     DISPFLAG        EQU             0FE61H
  FE62               128     RATIOTMP        EQU             0FE62H
  FE63               129     SYSL        EQU         0FE63H
  FE64               130     DIAL            EQU             0FE64H
  FE65               131     PPRO            EQU             0FE65H
  FE66               132     BMODE           EQU             0FE66H
  FE67               133     BFLAG           EQU             0FE67H
                     134     ;**************************************************************************************
  FE68               135     FLCKCNT         EQU             0FE68H
  FE69               136     MEMNB           EQU             0FE69H
  FE6C               137     SSEC            EQU             0FE6CH
  FE6D               138     FUN                     EQU             0FE6DH
  FE6E               139     AGITT           EQU             0FE6EH                                  ;`W?
  FE6F               140     ZDCTER      EQU     0FE6FH
                     141     ;**************************************************************************************
  FE70               142     CLK1L           EQU             0FE70H
  FE71               143     CLK1H           EQU             0FE71H
  FE72               144     CLK2L           EQU             0FE72H
  FE73               145     CLK2H           EQU             0FE73H
  FE74               146     CLK3L           EQU             0FE74H
  FE75               147     CLK3H           EQU             0FE75H
  FE79               148     DNCTER          EQU             0FE79H
                     149     ;**************************************************************************************
  FE80               150     SYEAR           EQU             0FE80H
  FE81               151     SMONTH          EQU             0FE81H
  FE82               152     SDAY            EQU             0FE82H
  FE83               153     SHOUR           EQU             0FE83H
  FE84               154     SMIN            EQU             0FE84H
  FE85               155     PSYS            EQU             0FE85H
  FE86               156     PDIA            EQU             0FE86H
  FE87               157     PHR                     EQU             0FE87H
                     158     ;**************************************************************************************
  FE88               159     DATABUF         EQU             0FE88H
  FE8A               160     BNUMB           EQU             0FE8AH
  FE8B               161     TEMV            EQU             0FE8BH
  FE8C               162     BATENL          EQU             0FE8CH
  FE8D               163     BATENH          EQU             0FE8DH
  FE8E               164     LBR                     EQU             0FE8EH
  FE8F               165     PSTATE1         EQU             0FE8FH
                     166     ;**************************************************************************************
  FE7D               167     DMIN            EQU             0FE7DH
  FE7A               168     LB                      EQU             0FE7AH
                     169     ;**************************************************************************************
  FE90               170     LBR1            EQU             0FE90H        ;SAVE
                     171     
                     172     ;----------------------------
  FE94               173     LBVR        EQU     0FE94H
A51 MACRO ASSEMBLER  JC                                                                   12/18/2017 16:56:46 PAGE     4

  FE95               174     NUBSAV          EQU             0FE95H
  FE96               175     BASEDT          EQU             0FE96H
  FE97               176     BASEDTM     EQU     0FE97H
  FE98               177     BASEDTH     EQU     0FE98H
  FE99               178     CHECK       EQU     0FE99H
  FE9A               179     STOREH      EQU     0FE9AH
                     180     
  FE9C               181     CHGI0       EQU     0FE9CH
  FE9D               182     CHGI1       EQU     0FE9DH
  FE9E               183     CHGI2       EQU     0FE9EH 
  FE9F               184     CHGI3       EQU     0FE9FH
                     185                  
                     186     ;--------------------------添加 小梁2012.11.12
  FECB               187     YPTR            EQU             0FECBH
  FECC               188     MAXPRESSUREL    EQU     0FECCH
  FECD               189     MAXPRESSUREH    EQU             0FECDH
                     190     ;**************************************************************************************
  FE7B               191     LANGS       EQU     0FE7BH 
  FE7C               192     LANGY       EQU     0FE7CH 
                     193     ;***************************************************************************
  FEA0               194     SSECA       EQU     0FEA0H 
  FEA1               195     SSECB       EQU     0FEA1H 
  FEA2               196     LBVRS       EQU     0FEA2H 
                     197     FLAG_TEST       EQU    0FEA3H.0
*** ________________________________________________^
*** ERROR #A17 IN 197 (Src\JC.asm, LINE 197): INVALID BYTE BASE IN BIT ADDRESS EXPRESSION
                     198     FLAG_STOP_VOIC  EQU    0FEA3H.1
*** ________________________________________________^
*** ERROR #A17 IN 198 (Src\JC.asm, LINE 198): INVALID BYTE BASE IN BIT ADDRESS EXPRESSION
  FEA4               199     FULLMAXL       EQU     0FEA4H 
  FEA5               200     FULLMAXH       EQU     0FEA5H
  FEA6               201     FULLMAXM       EQU     0FEA6H
  FEA8               202     ZREOTSHL       EQU     0FEA8H
  FEA9               203     ZREOTSHH       EQU     0FEA9H
  FEAB               204     COUNT2         EQU     0FEABH
  FEAC               205     COUNT3         EQU     0FEACH
                     206     MOONFLAG       EQU     0FEADH.0
*** ________________________________________________^
*** ERROR #A17 IN 206 (Src\JC.asm, LINE 206): INVALID BYTE BASE IN BIT ADDRESS EXPRESSION
                     207     SUNFLAG        EQU     0FEADH.1
*** ________________________________________________^
*** ERROR #A17 IN 207 (Src\JC.asm, LINE 207): INVALID BYTE BASE IN BIT ADDRESS EXPRESSION
                     208     ZEROFLAG       EQU     0FEADH.2
*** ________________________________________________^
*** ERROR #A17 IN 208 (Src\JC.asm, LINE 208): INVALID BYTE BASE IN BIT ADDRESS EXPRESSION
                     209     CLKFLAG        EQU     0FEADH.3
*** ________________________________________________^
*** ERROR #A17 IN 209 (Src\JC.asm, LINE 209): INVALID BYTE BASE IN BIT ADDRESS EXPRESSION
                     210     HOURFLAG       EQU     0FEADH.4
*** ________________________________________________^
*** ERROR #A17 IN 210 (Src\JC.asm, LINE 210): INVALID BYTE BASE IN BIT ADDRESS EXPRESSION
                     211     CLOCKFLAG      EQU     0FEADH.5
*** ________________________________________________^
*** ERROR #A17 IN 211 (Src\JC.asm, LINE 211): INVALID BYTE BASE IN BIT ADDRESS EXPRESSION
  FEB3               212     MEMNBER        EQU     0FEB3H
  FEB4               213     HOURNB         EQU     0FEB4H
  FEB6               214     PA8            EQU     0FEB6H
  FEB7               215     PA9            EQU     0FEB7H
                     216     ERR1FLAG       EQU     0FEAEH.0
*** ________________________________________________^
*** ERROR #A17 IN 216 (Src\JC.asm, LINE 216): INVALID BYTE BASE IN BIT ADDRESS EXPRESSION
                     217     ERR2FLAG       EQU     0FEAEH.1
*** ________________________________________________^
*** ERROR #A17 IN 217 (Src\JC.asm, LINE 217): INVALID BYTE BASE IN BIT ADDRESS EXPRESSION
                     218     ERR3FLAG       EQU     0FEAEH.2
*** ________________________________________________^
A51 MACRO ASSEMBLER  JC                                                                   12/18/2017 16:56:46 PAGE     5

*** ERROR #A17 IN 218 (Src\JC.asm, LINE 218): INVALID BYTE BASE IN BIT ADDRESS EXPRESSION
                     219     ERR4FLAG       EQU     0FEAEH.3
*** ________________________________________________^
*** ERROR #A17 IN 219 (Src\JC.asm, LINE 219): INVALID BYTE BASE IN BIT ADDRESS EXPRESSION
                     220     ERR5FLAG       EQU     0FEAEH.4
*** ________________________________________________^
*** ERROR #A17 IN 220 (Src\JC.asm, LINE 220): INVALID BYTE BASE IN BIT ADDRESS EXPRESSION
                     221     
  FED0               222     UR6TDSS     EQU     0FED0H
  FED1               223     UR6TDSSH    EQU     0FED1H
  FED2               224     IPTR3L          EQU     0FED2H
  FED3               225     IPTR3H          EQU     0FED3H
  FED4               226     IPTRCL      EQU         0FED4H
  FEBA               227     PR6         EQU         0FEBAH
  FEBB               228     PR5         EQU         0FEBBH
  FEBC               229     PR4         EQU         0FEBCH
  FEBD               230     PR3         EQU         0FEBDH
  FEBE               231     PR2         EQU         0FEBEH
  FEC4               232     UR6TLEN     EQU     0FEC4H
  FEC5               233     UR6TLEN1    EQU     0FEC5H
  FEC6               234     UR6DSS      EQU     0FEC6H
  FEC7               235     UR6DSS1     EQU     0FEC7H
  FEC8               236     UR6DSS2     EQU     0FEC8H
  FEC9               237     UR6DSS3     EQU     0FEC9H
  FECA               238     UR6DSS4     EQU     0FECAH
                     239     ;//**********FLASH DIR*************************
  FE77               240     ADSSBS2         EQU     0FE77H
  FE76               241     ADSSBS1         EQU     0FE76H
  FE78               242     ADSSBS0         EQU     0FE78H
                     243     
  FE7F               244     DIRUP1          EQU     0FE7FH
  FE7E               245     DIRUP0          EQU     0FE7EH
  FE6B               246     DIRDN1          EQU     0FE6BH
  FE6A               247     DIRDN0          EQU     0FE6AH
  FEDA               248     IPTR2DL          EQU     0FEDAH
  FEDB               249     IPTR2DH          EQU     0FEDBH
                     250     
  FB54               251     CSIDSS          EQU     0FB54H
  FEAA               252     UR6RLEN         EQU     0FEAAH
  FB66               253     UR6RDSS         EQU     0FB66H
                     254     
                     255     ;//**********FLASH DIR*************************
                     256     ;---------------------modify_02_01-------------------------
  FEB8               257     MAXPRE_CNT  EQU     0FEB8H
                     258     ;---------------------modify_02_01-------------------------
                     259     ;---------------------modify_19_02-------------------------
  FEDC               260     MAXVP_DATE_0     EQU     0FEDCH
  FEDD               261     MAXVP_DATE_1     EQU     0FEDDH
  FEDE               262     MAXVP_DATE_M     EQU     0FEDEH
                     263     ;---------------------modify_19_02-------------------------
  0000               264     FLASH_ENV                                       EQU     00H     ;Initialization
  0003               265     FLASH_BLOCK_ERASE                       EQU     03H     ;Block erace
  0004               266     FLASH_WORD_WRITE                        EQU     04H     ;Word write
  0006               267     FLASH_BLOCK_VERIFY                      EQU     06H     ;Block verify
  0008               268     FLASH_BLOCK_BLANKCHECK          EQU     08H     ;Block blank check
  0009               269     FLASH_GET_INF                           EQU     09H     ;Flash memory information read
  000A               270     FLASH_SET_INF                           EQU     0AH     ;Flash memory information setting
  000E               271     FLASH_CHECK_FLMD                        EQU     0EH     ;Mode check
  0017               272     FLASH_EEPROM_WRITE                      EQU     17H     ;EEPROM write
  0005               273     FLASHFIRM_PARAMETER_ERROR       EQU     05H     ;Parameter error
  00FF               274     BANK_BLC_ERROR                          EQU     0FFH    ;Bank number error(BLOCK)
  FFFF               275     BANK_ADDR_ERROR                         EQU     0FFFFH  ;Bank number error(ADDRESS)
                     276     ;**************************************************************************************
  F400               277     RAM100                                          EQU             0F400H
                     278     ;---------------------modify_17_01-------------------------
  F770               279     WRITEADDRESS                            EQU             0F770H
A51 MACRO ASSEMBLER  JC                                                                   12/18/2017 16:56:46 PAGE     6

  F772               280     WRITEBANK                                       EQU             0F772H
                     281     ;---------------------modify_17_01-------------------------
                     282     ;*********************************************************************************
                     283                     VECT CSEG       AT      0000H
*** _________________________________________^
*** ERROR #A9 IN 283 (Src\JC.asm, LINE 283): SYNTAX ERROR
0000 0A00            284                     DW      START
0A00                 285                 ORG 0A00H
                     286                             
                     287                             
                     288                             
                     289     
0A00                 290                                                                                             START:
                     291                                                                                             ;检测初始化部分
0A00                 292                                                                                             JC:
*** _________________________________________________________________________________________________________________^
*** ERROR #A5 IN 292 (Src\JC.asm, LINE 292): ILLEGAL USE OF A RESERVED WORD
0A00 75AC00          293                                                                                                             MOV      COUNT3,#0
*** __________________________________________________________________________________________________________________________________________^
*** WARNING #A52 IN 293 (Src\JC.asm, LINE 293): VALUE HAS BEEN TRUNCATED TO 8 BITS
                     294                                                                                                             SET1    FIRST8
*** _________________________________________________________________________________________________________________________________^
*** ERROR #A9 IN 294 (Src\JC.asm, LINE 294): SYNTAX ERROR
                     295                                                                                                             CLR1    MAXV072                         ;低压点检出标志
*** _________________________________________________________________________________________________________________________________^
*** ERROR #A9 IN 295 (Src\JC.asm, LINE 295): SYNTAX ERROR
0A03 754300          296                                                                                                             MOV     PHASE,#FFRE             ;置检测阶段标志初始化标志
*** _________________________________________________________________________________________________________________________________________^
*** WARNING #A52 IN 296 (Src\JC.asm, LINE 296): VALUE HAS BEEN TRUNCATED TO 8 BITS
                     297                                                                                                             MOVW    AX,#0
*** _________________________________________________________________________________________________________________________________^
*** ERROR #A9 IN 297 (Src\JC.asm, LINE 297): SYNTAX ERROR
0A06 F53D            298                                                                                                             MOV             MPT,A
*** _________________________________________________________________________________________________________________________________________________^
*** WARNING #A52 IN 298 (Src\JC.asm, LINE 298): VALUE HAS BEEN TRUNCATED TO 8 BITS
0A08 F565            299                                                                                                             MOV     PPRO,A                  ;后处理指针
*** _________________________________________________________________________________________________________________________________________^
*** WARNING #A52 IN 299 (Src\JC.asm, LINE 299): VALUE HAS BEEN TRUNCATED TO 8 BITS
                     300                                                                                                             MOVW    RTCOUNTL,AX                             ;实时时间计?器RTCOUNTH与TCOUNTH共用
*** _________________________________________________________________________________________________________________________________^
*** ERROR #A9 IN 300 (Src\JC.asm, LINE 300): SYNTAX ERROR
                     301                                                                                                             MOVW    COUNT,AX                ;峰宽
*** _________________________________________________________________________________________________________________________________^
*** ERROR #A9 IN 301 (Src\JC.asm, LINE 301): SYNTAX ERROR
0A0A F52A            302                                                                                                             MOV             IPTR2,A                 ;心跳队列指针
*** _________________________________________________________________________________________________________________________________________________^
*** WARNING #A52 IN 302 (Src\JC.asm, LINE 302): VALUE HAS BEEN TRUNCATED TO 8 BITS
0A0C F547            303                                                                                                             MOV             BPPTR,A
*** _________________________________________________________________________________________________________________________________________________^
*** WARNING #A52 IN 303 (Src\JC.asm, LINE 303): VALUE HAS BEEN TRUNCATED TO 8 BITS
                     304                                                                                                             MOVW    LASTL,AX
*** _________________________________________________________________________________________________________________________________^
*** ERROR #A9 IN 304 (Src\JC.asm, LINE 304): SYNTAX ERROR
0A0E F540            305                                                                                                             MOV   H_HEART_C,A
*** _______________________________________________________________________________________________________________________________________^
*** WARNING #A52 IN 305 (Src\JC.asm, LINE 305): VALUE HAS BEEN TRUNCATED TO 8 BITS
                     306                                                                                                             CLR1  HRERR_1
*** _________________________________________________________________________________________________________________________________^
*** ERROR #A9 IN 306 (Src\JC.asm, LINE 306): SYNTAX ERROR
                     307                                                                                             ;---------------------modify_22_02-------------------------
                     308                                                                                                             CLR1  HRERR
*** _________________________________________________________________________________________________________________________________^
*** ERROR #A9 IN 308 (Src\JC.asm, LINE 308): SYNTAX ERROR
                     309                                                                                             ;---------------------modify_22_02-------------------------
0A10 F548            310                                                                                                             MOV     DISPTIME,A
*** _________________________________________________________________________________________________________________________________________^
A51 MACRO ASSEMBLER  JC                                                                   12/18/2017 16:56:46 PAGE     7

*** WARNING #A52 IN 310 (Src\JC.asm, LINE 310): VALUE HAS BEEN TRUNCATED TO 8 BITS
0A12 F549            311                                                                                                             MOV     BPTR,A
*** _________________________________________________________________________________________________________________________________________^
*** WARNING #A52 IN 311 (Src\JC.asm, LINE 311): VALUE HAS BEEN TRUNCATED TO 8 BITS
                     312                     
                     313     void JC(void)
*** _________________________^
*** ERROR #A9 IN 313 (Src\JC.asm, LINE 313): SYNTAX ERROR
                     314     {
*** _________________________^
*** ERROR #A9 IN 314 (Src\JC.asm, LINE 314): SYNTAX ERROR
                     315             COUNT3=0;
*** _________________________________^
*** ERROR #A9 IN 315 (Src\JC.asm, LINE 315): SYNTAX ERROR
                     316             FIRST8=1;
*** _________________________________^
*** ERROR #A9 IN 316 (Src\JC.asm, LINE 316): SYNTAX ERROR
                     317             MAXV072=0;
*** _________________________________^
*** ERROR #A9 IN 317 (Src\JC.asm, LINE 317): SYNTAX ERROR
                     318             PHASE=0;
*** _________________________________^
*** ERROR #A9 IN 318 (Src\JC.asm, LINE 318): SYNTAX ERROR
                     319             MPT=0;
*** _________________________________^
*** ERROR #A9 IN 319 (Src\JC.asm, LINE 319): SYNTAX ERROR
                     320             PPRO=0;
*** _________________________________^
*** ERROR #A9 IN 320 (Src\JC.asm, LINE 320): SYNTAX ERROR
                     321             RTCOUNTL=0;
*** _________________________________^
*** ERROR #A9 IN 321 (Src\JC.asm, LINE 321): SYNTAX ERROR
                     322             BPPTR=0;
*** _________________________________^
*** ERROR #A9 IN 322 (Src\JC.asm, LINE 322): SYNTAX ERROR
                     323             COUNT=0;
*** _________________________________^
*** ERROR #A9 IN 323 (Src\JC.asm, LINE 323): SYNTAX ERROR
                     324             COUNT1=0;
*** _________________________________^
*** ERROR #A9 IN 324 (Src\JC.asm, LINE 324): SYNTAX ERROR
                     325             IPTR2=0;
*** _________________________________^
*** ERROR #A9 IN 325 (Src\JC.asm, LINE 325): SYNTAX ERROR
                     326             BPPTR=0;
*** _________________________________^
*** ERROR #A9 IN 326 (Src\JC.asm, LINE 326): SYNTAX ERROR
                     327             LASTL=0;
*** _________________________________^
*** ERROR #A9 IN 327 (Src\JC.asm, LINE 327): SYNTAX ERROR
                     328             LASTH=0;
*** _________________________________^
*** ERROR #A9 IN 328 (Src\JC.asm, LINE 328): SYNTAX ERROR
                     329             H_HEART_C=0;
*** _________________________________^
*** ERROR #A9 IN 329 (Src\JC.asm, LINE 329): SYNTAX ERROR
                     330             HREER_1=0;
*** _________________________________^
*** ERROR #A9 IN 330 (Src\JC.asm, LINE 330): SYNTAX ERROR
                     331             HREER=0;
*** _________________________________^
*** ERROR #A9 IN 331 (Src\JC.asm, LINE 331): SYNTAX ERROR
                     332             DPSPTIME=0;
*** _________________________________^
*** ERROR #A9 IN 332 (Src\JC.asm, LINE 332): SYNTAX ERROR
                     333             BPTR=0;
A51 MACRO ASSEMBLER  JC                                                                   12/18/2017 16:56:46 PAGE     8

*** _________________________________^
*** ERROR #A9 IN 333 (Src\JC.asm, LINE 333): SYNTAX ERROR
                     334     }
*** _________________________^
*** ERROR #A9 IN 334 (Src\JC.asm, LINE 334): SYNTAX ERROR
                     335     
                     336                     
0A14                 337     JCH1:     
                     338     ;**************************************************************************************
                     339     ;前处理部分部分
0A14                 340     JCL:                    
                     341             CLR1    AB              
*** _________________________________^
*** ERROR #A9 IN 341 (Src\JC.asm, LINE 341): SYNTAX ERROR
                     342             ;======================================;//采集压力一次ACQDATA
0A14                 343     JCL0:                                           
                     344             CMP     BPPTR,#5       
*** _________________________________^
*** ERROR #A9 IN 344 (Src\JC.asm, LINE 344): SYNTAX ERROR
                     345             BC              $JCL2
*** _________________________________^
*** ERROR #A9 IN 345 (Src\JC.asm, LINE 345): SYNTAX ERROR
                     346             BF      MAXV072,$JCL2                   
*** _________________________________^
*** ERROR #A9 IN 346 (Src\JC.asm, LINE 346): SYNTAX ERROR
                     347             CMP     COUNT,#64H                              
*** _________________________________^
*** ERROR #A9 IN 347 (Src\JC.asm, LINE 347): SYNTAX ERROR
                     348             BC      $JCL2
*** _________________________________^
*** ERROR #A9 IN 348 (Src\JC.asm, LINE 348): SYNTAX ERROR
0A14                 349     JCL1:      
                     350             BR      !DEND                   
*** _________________________________^
*** _________________________________________^
*** ERROR #A9 IN 350 (Src\JC.asm, LINE 350): SYNTAX ERROR
*** ERROR #A3 IN 350 (Src\JC.asm, LINE 350): ILLEGAL CHARACTER
                     351     ;**************************************************************************************
0A14                 352     JCL2:
0A14 7400            353             MOV     A,#0
0A16                 354             CALL    !LDOPTRA                ;当前?据放在 AX
*** _________________________________________^
*** __________________________________________^
*** ERROR #A9 IN 354 (Src\JC.asm, LINE 354): SYNTAX ERROR
*** ERROR #A9 IN 354 (Src\JC.asm, LINE 354): SYNTAX ERROR
                     355             MOVW    BC,AX                   ;当前?据放在 BC
*** _________________________________^
*** ERROR #A9 IN 355 (Src\JC.asm, LINE 355): SYNTAX ERROR
0A16                 356     JCL3:      
                     357                 
                     358             ;-------------------------------------
0A16 752219          359             MOV   PA2,#25
*** _______________________________________^
*** WARNING #A52 IN 359 (Src\JC.asm, LINE 359): VALUE HAS BEEN TRUNCATED TO 8 BITS
                     360             MOVW  AX,BASEDT
*** _________________________________^
*** ERROR #A9 IN 360 (Src\JC.asm, LINE 360): SYNTAX ERROR
                     361             MOVW  PA0,AX
*** _________________________________^
*** ERROR #A9 IN 361 (Src\JC.asm, LINE 361): SYNTAX ERROR
0A19                 362             CALL  !UMUL
*** _______________________________________^
*** ________________________________________^
*** ERROR #A9 IN 362 (Src\JC.asm, LINE 362): SYNTAX ERROR
*** ERROR #A9 IN 362 (Src\JC.asm, LINE 362): SYNTAX ERROR
0A19 752300          363             MOV   PA3,#0
A51 MACRO ASSEMBLER  JC                                                                   12/18/2017 16:56:46 PAGE     9

*** _______________________________________^
*** WARNING #A52 IN 363 (Src\JC.asm, LINE 363): VALUE HAS BEEN TRUNCATED TO 8 BITS
                     364             MOVW  PA4,#100
*** _________________________________^
*** ERROR #A9 IN 364 (Src\JC.asm, LINE 364): SYNTAX ERROR
0A1C                 365             CALL  !UDIV
*** _______________________________________^
*** ________________________________________^
*** ERROR #A9 IN 365 (Src\JC.asm, LINE 365): SYNTAX ERROR
*** ERROR #A9 IN 365 (Src\JC.asm, LINE 365): SYNTAX ERROR
                     366             MOVW  AX,BC
*** _________________________________^
*** ERROR #A9 IN 366 (Src\JC.asm, LINE 366): SYNTAX ERROR
0A1C                 367             XCH   A,X
*** _________________________________________^
*** ERROR #A45 IN 367 (Src\JC.asm, LINE 367): UNDEFINED SYMBOL (PASS-2)
                     368             SUB   A,PA0
*** _________________________________^
*** ERROR #A9 IN 368 (Src\JC.asm, LINE 368): SYNTAX ERROR
0A1E                 369             XCH   A,X
*** _________________________________________^
*** ERROR #A45 IN 369 (Src\JC.asm, LINE 369): UNDEFINED SYMBOL (PASS-2)
                     370             SUBC  A,PA1
*** _________________________________^
*** ERROR #A9 IN 370 (Src\JC.asm, LINE 370): SYNTAX ERROR
                     371            ;-------------------------------------
                     372                ;CMPW        AX,#04E2H           
                     373             BNC     $JCL5                   ;压力<25mmHg, 强制转到检测结束阶段DEND
*** _________________________________^
*** ERROR #A9 IN 373 (Src\JC.asm, LINE 373): SYNTAX ERROR
                     374             BR      !DEND
*** _________________________________^
*** _________________________________________^
*** ERROR #A9 IN 374 (Src\JC.asm, LINE 374): SYNTAX ERROR
*** ERROR #A3 IN 374 (Src\JC.asm, LINE 374): ILLEGAL CHARACTER
                     375     ;**************************************************************************************
0A20                 376     JCL5:
                     377             CMP     COUNT,#0FAH                     ;//比较计?值,低于250跳转到JCL6,否则
*** _________________________________^
*** ERROR #A9 IN 377 (Src\JC.asm, LINE 377): SYNTAX ERROR
                     378             BC      $JCL51
*** _________________________________^
*** ERROR #A9 IN 378 (Src\JC.asm, LINE 378): SYNTAX ERROR
0A20 754300          379             MOV     PHASE,#FFRE;                    ;对状态位进行复位,清空计?器
*** _________________________________________^
*** WARNING #A52 IN 379 (Src\JC.asm, LINE 379): VALUE HAS BEEN TRUNCATED TO 8 BITS
0A23 754400          380             MOV     COUNT,#0
*** _________________________________________^
*** WARNING #A52 IN 380 (Src\JC.asm, LINE 380): VALUE HAS BEEN TRUNCATED TO 8 BITS
                     381     ;**************************************************************************************
0A26                 382     JCL51:
                     383             CMP     BPPTR,#5
*** _________________________________^
*** ERROR #A9 IN 383 (Src\JC.asm, LINE 383): SYNTAX ERROR
                     384             BNC     $JCL6
*** _________________________________^
*** ERROR #A9 IN 384 (Src\JC.asm, LINE 384): SYNTAX ERROR
0A26 7401            385             MOV     A,#1                    ;斜率?大退出
0A28                 386             CALL    !LDOPTRA
*** _________________________________________^
*** __________________________________________^
*** ERROR #A9 IN 386 (Src\JC.asm, LINE 386): SYNTAX ERROR
*** ERROR #A9 IN 386 (Src\JC.asm, LINE 386): SYNTAX ERROR
0A28 E520            387             MOV     A,PA0
*** ___________________________________________^
*** WARNING #A52 IN 387 (Src\JC.asm, LINE 387): VALUE HAS BEEN TRUNCATED TO 8 BITS
A51 MACRO ASSEMBLER  JC                                                                   12/18/2017 16:56:46 PAGE    10

                     388             SUB     A,C
*** _________________________________^
*** ERROR #A9 IN 388 (Src\JC.asm, LINE 388): SYNTAX ERROR
0A2A F520            389             MOV     PA0,A
*** _________________________________________^
*** WARNING #A52 IN 389 (Src\JC.asm, LINE 389): VALUE HAS BEEN TRUNCATED TO 8 BITS
0A2C E521            390             MOV     A,PA1
*** ___________________________________________^
*** WARNING #A52 IN 390 (Src\JC.asm, LINE 390): VALUE HAS BEEN TRUNCATED TO 8 BITS
                     391             SUBC    A,B
*** _________________________________^
*** ERROR #A9 IN 391 (Src\JC.asm, LINE 391): SYNTAX ERROR
0A2E F521            392             MOV     PA1,A
*** _________________________________________^
*** WARNING #A52 IN 392 (Src\JC.asm, LINE 392): VALUE HAS BEEN TRUNCATED TO 8 BITS
                     393             BNC     $JCL52
*** _________________________________^
*** ERROR #A9 IN 393 (Src\JC.asm, LINE 393): SYNTAX ERROR
0A30                 394             CALL    !ABSOLUT
*** _________________________________________^
*** __________________________________________^
*** ERROR #A9 IN 394 (Src\JC.asm, LINE 394): SYNTAX ERROR
*** ERROR #A9 IN 394 (Src\JC.asm, LINE 394): SYNTAX ERROR
0A30                 395     JCL52:     
                     396             MOVW    AX,PA0
*** _________________________________^
*** ERROR #A9 IN 396 (Src\JC.asm, LINE 396): SYNTAX ERROR
                     397             MOVW    PB2,AX
*** _________________________________^
*** ERROR #A9 IN 397 (Src\JC.asm, LINE 397): SYNTAX ERROR
                     398             ;-----------------------
0A30 752204          399              MOV   PA2,#4
*** ________________________________________^
*** WARNING #A52 IN 399 (Src\JC.asm, LINE 399): VALUE HAS BEEN TRUNCATED TO 8 BITS
                     400              MOVW  AX,BASEDT
*** __________________________________^
*** ERROR #A9 IN 400 (Src\JC.asm, LINE 400): SYNTAX ERROR
                     401              MOVW  PA0,AX
*** __________________________________^
*** ERROR #A9 IN 401 (Src\JC.asm, LINE 401): SYNTAX ERROR
0A33                 402              CALL  !UMUL
*** ________________________________________^
*** _________________________________________^
*** ERROR #A9 IN 402 (Src\JC.asm, LINE 402): SYNTAX ERROR
*** ERROR #A9 IN 402 (Src\JC.asm, LINE 402): SYNTAX ERROR
0A33 752300          403              MOV   PA3,#0
*** ________________________________________^
*** WARNING #A52 IN 403 (Src\JC.asm, LINE 403): VALUE HAS BEEN TRUNCATED TO 8 BITS
                     404              MOVW  PA4,#100
*** __________________________________^
*** ERROR #A9 IN 404 (Src\JC.asm, LINE 404): SYNTAX ERROR
0A36                 405              CALL  !UDIV
*** ________________________________________^
*** _________________________________________^
*** ERROR #A9 IN 405 (Src\JC.asm, LINE 405): SYNTAX ERROR
*** ERROR #A9 IN 405 (Src\JC.asm, LINE 405): SYNTAX ERROR
                     406              MOVW  AX,PB2
*** __________________________________^
*** ERROR #A9 IN 406 (Src\JC.asm, LINE 406): SYNTAX ERROR
0A36                 407              XCH   A,X
*** __________________________________________^
*** ERROR #A45 IN 407 (Src\JC.asm, LINE 407): UNDEFINED SYMBOL (PASS-2)
                     408              SUB   A,PA0
*** __________________________________^
*** ERROR #A9 IN 408 (Src\JC.asm, LINE 408): SYNTAX ERROR
0A38                 409              XCH   A,X
A51 MACRO ASSEMBLER  JC                                                                   12/18/2017 16:56:46 PAGE    11

*** __________________________________________^
*** ERROR #A45 IN 409 (Src\JC.asm, LINE 409): UNDEFINED SYMBOL (PASS-2)
                     410              SUBC  A,PA1
*** __________________________________^
*** ERROR #A9 IN 410 (Src\JC.asm, LINE 410): SYNTAX ERROR
                     411             ;-----------------------------
                     412             ;CMPW   AX,#50H                 ;#$75=117=1.46MMHG    1.42-1.82
                     413             BC      $JCL60                          ;两点斜率?大退出
*** _________________________________^
*** ERROR #A9 IN 413 (Src\JC.asm, LINE 413): SYNTAX ERROR
0A3A 75AC00          414             MOV     COUNT3,#0       
*** _________________________________________^
*** WARNING #A52 IN 414 (Src\JC.asm, LINE 414): VALUE HAS BEEN TRUNCATED TO 8 BITS
0A3D                 415             CALL    !MAXPREUP
*** _________________________________________^
*** __________________________________________^
*** ERROR #A9 IN 415 (Src\JC.asm, LINE 415): SYNTAX ERROR
*** ERROR #A9 IN 415 (Src\JC.asm, LINE 415): SYNTAX ERROR
                     416             CMP     A,#0
*** _________________________________^
*** ERROR #A9 IN 416 (Src\JC.asm, LINE 416): SYNTAX ERROR
                     417             BZ      $JCL6
*** _________________________________^
*** ERROR #A9 IN 417 (Src\JC.asm, LINE 417): SYNTAX ERROR
0A3D                 418     JCL81:
                     419               SET1  FIRST8
*** ___________________________________^
*** ERROR #A9 IN 419 (Src\JC.asm, LINE 419): SYNTAX ERROR
                     420               BR    !JCL            ;  WSEMI1               ;短时间压力值增加一定值，表明用户再次打气，重新测量
*** ___________________________________^
*** _________________________________________^
*** ERROR #A9 IN 420 (Src\JC.asm, LINE 420): SYNTAX ERROR
*** ERROR #A3 IN 420 (Src\JC.asm, LINE 420): ILLEGAL CHARACTER
0A3D                 421     TZH_03Z:
0A3D 05AC            422               INC   COUNT3    
*** _________________________________________^
*** WARNING #A52 IN 422 (Src\JC.asm, LINE 422): VALUE HAS BEEN TRUNCATED TO 8 BITS
0A3F                 423               POP   AX 
*** _________________________________________^
*** ERROR #A45 IN 423 (Src\JC.asm, LINE 423): UNDEFINED SYMBOL (PASS-2)
                     424               CMP   COUNT3,#50
*** ___________________________________^
*** ERROR #A9 IN 424 (Src\JC.asm, LINE 424): SYNTAX ERROR
                     425               BC    $JCL6
*** ___________________________________^
*** ERROR #A9 IN 425 (Src\JC.asm, LINE 425): SYNTAX ERROR
0A41 75AC00          426               MOV   COUNT3,#0         
*** _________________________________________^
*** WARNING #A52 IN 426 (Src\JC.asm, LINE 426): VALUE HAS BEEN TRUNCATED TO 8 BITS
                     427               BR    !TZH                                            ;状态变量处理部分
*** ___________________________________^
*** _________________________________________^
*** ERROR #A9 IN 427 (Src\JC.asm, LINE 427): SYNTAX ERROR
*** ERROR #A3 IN 427 (Src\JC.asm, LINE 427): ILLEGAL CHARACTER
                     428     ;**************************************************************************************
0A44                 429     JCL60:
0A44                 430              PUSH   AX
*** _________________________________________^
*** ERROR #A45 IN 430 (Src\JC.asm, LINE 430): UNDEFINED SYMBOL (PASS-2)
                     431              MOVW   AX,PB2
*** __________________________________^
*** ERROR #A9 IN 431 (Src\JC.asm, LINE 431): SYNTAX ERROR
                     432              CMPW   AX,#181
*** __________________________________^
*** ERROR #A9 IN 432 (Src\JC.asm, LINE 432): SYNTAX ERROR
                     433              BC     $TZH_03Z
A51 MACRO ASSEMBLER  JC                                                                   12/18/2017 16:56:46 PAGE    12

*** __________________________________^
*** ERROR #A9 IN 433 (Src\JC.asm, LINE 433): SYNTAX ERROR
0A46 75AC00          434              MOV    COUNT3,#0        
*** _________________________________________^
*** WARNING #A52 IN 434 (Src\JC.asm, LINE 434): VALUE HAS BEEN TRUNCATED TO 8 BITS
0A49                 435              POP    AX
*** _________________________________________^
*** ERROR #A45 IN 435 (Src\JC.asm, LINE 435): UNDEFINED SYMBOL (PASS-2)
0A4B                 436     JCL6:
0A4B 0544            437               INC   COUNT                   ;心跳(检测?据)计?加1
*** _________________________________________^
*** WARNING #A52 IN 437 (Src\JC.asm, LINE 437): VALUE HAS BEEN TRUNCATED TO 8 BITS
0A4D 756500          438               MOV   PPRO,#0                 ;后处理标志清零
*** _________________________________________^
*** WARNING #A52 IN 438 (Src\JC.asm, LINE 438): VALUE HAS BEEN TRUNCATED TO 8 BITS
                     439               CMP   COUNT,#64H
*** ___________________________________^
*** ERROR #A9 IN 439 (Src\JC.asm, LINE 439): SYNTAX ERROR
                     440               BC    $JCL7
*** ___________________________________^
*** ERROR #A9 IN 440 (Src\JC.asm, LINE 440): SYNTAX ERROR
                     441               SET1  JCDFLAG.4                       ;2秒钟无信号恢复自由显示状态
*** ___________________________________^
*** ERROR #A9 IN 441 (Src\JC.asm, LINE 441): SYNTAX ERROR
                     442     ;**************************************************************************************
                     443     ; BPPTR<10 BUF2处理部分
0A50                 444     JCL7:
                     445               CMP   BPPTR,#05               ; 气压?高重入检测 ;05,原来=10=$A
*** ___________________________________^
*** ERROR #A9 IN 445 (Src\JC.asm, LINE 445): SYNTAX ERROR
                     446               BNC   $HTCOUNT0
*** ___________________________________^
*** ERROR #A9 IN 446 (Src\JC.asm, LINE 446): SYNTAX ERROR
0A50                 447               CALL  !TOBUF2                 ;测量值送入BUF2,当前值在R1R0中
*** _________________________________________^
*** __________________________________________^
*** ERROR #A9 IN 447 (Src\JC.asm, LINE 447): SYNTAX ERROR
*** ERROR #A9 IN 447 (Src\JC.asm, LINE 447): SYNTAX ERROR
                     448     ;**************************************************************************************
0A50                 449     HTCOUNT0:                 
0A50 E543            450               MOV   A,PHASE
*** ___________________________________________^
*** WARNING #A52 IN 450 (Src\JC.asm, LINE 450): VALUE HAS BEEN TRUNCATED TO 8 BITS
                     451               AND   A,#3
*** ___________________________________^
*** ERROR #A9 IN 451 (Src\JC.asm, LINE 451): SYNTAX ERROR
0A52 F543            452               MOV   PHASE,A                 ;状态位循环处理
*** _________________________________________^
*** WARNING #A52 IN 452 (Src\JC.asm, LINE 452): VALUE HAS BEEN TRUNCATED TO 8 BITS
0A54                 453     JCL98:     
                     454               CLR1  CY
*** ___________________________________^
*** ERROR #A9 IN 454 (Src\JC.asm, LINE 454): SYNTAX ERROR
                     455               ROLC  A,1                     ;乘以3
*** ___________________________________^
*** ERROR #A9 IN 455 (Src\JC.asm, LINE 455): SYNTAX ERROR
0A54 2543            456               ADD   A,PHASE
*** ___________________________________________^
*** WARNING #A52 IN 456 (Src\JC.asm, LINE 456): VALUE HAS BEEN TRUNCATED TO 8 BITS
0A56                 457               XCH     A,X
*** _____________________________________________^
*** ERROR #A45 IN 457 (Src\JC.asm, LINE 457): UNDEFINED SYMBOL (PASS-2)
0A58 7400            458               MOV   A,#0
                     459               ADDW  AX,#JCL99
*** ___________________________________^
*** ERROR #A9 IN 459 (Src\JC.asm, LINE 459): SYNTAX ERROR
A51 MACRO ASSEMBLER  JC                                                                   12/18/2017 16:56:46 PAGE    13

                     460               BR    AX                              ;按状态跳转
*** ___________________________________^
*** ERROR #A9 IN 460 (Src\JC.asm, LINE 460): SYNTAX ERROR
0A5A                 461     JCL99:     
                     462               BR  !FFREADR
*** ___________________________________^
*** _______________________________________^
*** ERROR #A9 IN 462 (Src\JC.asm, LINE 462): SYNTAX ERROR
*** ERROR #A3 IN 462 (Src\JC.asm, LINE 462): ILLEGAL CHARACTER
                     463               BR  !FREADR
*** ___________________________________^
*** _______________________________________^
*** ERROR #A9 IN 463 (Src\JC.asm, LINE 463): SYNTAX ERROR
*** ERROR #A3 IN 463 (Src\JC.asm, LINE 463): ILLEGAL CHARACTER
                     464               BR  !FPADR
*** ___________________________________^
*** _______________________________________^
*** ERROR #A9 IN 464 (Src\JC.asm, LINE 464): SYNTAX ERROR
*** ERROR #A3 IN 464 (Src\JC.asm, LINE 464): ILLEGAL CHARACTER
                     465               BR  !FEPADR
*** ___________________________________^
*** _______________________________________^
*** ERROR #A9 IN 465 (Src\JC.asm, LINE 465): SYNTAX ERROR
*** ERROR #A3 IN 465 (Src\JC.asm, LINE 465): ILLEGAL CHARACTER
                     466     ;**************************************************************************************
                     467     ;首次上?沿检出
0A5A                 468     FFREADR:
                     469               BT    FIRST8,$FFRE1           
*** ___________________________________^
*** ERROR #A9 IN 469 (Src\JC.asm, LINE 469): SYNTAX ERROR
0A5A                 470               CALL  !DRE
*** _________________________________________^
*** __________________________________________^
*** ERROR #A9 IN 470 (Src\JC.asm, LINE 470): SYNTAX ERROR
*** ERROR #A9 IN 470 (Src\JC.asm, LINE 470): SYNTAX ERROR
                     471               CMP   A,#0
*** ___________________________________^
*** ERROR #A9 IN 471 (Src\JC.asm, LINE 471): SYNTAX ERROR
                     472               BZ    $FFRE1                          
*** ___________________________________^
*** ERROR #A9 IN 472 (Src\JC.asm, LINE 472): SYNTAX ERROR
0A5A 756501          473               MOV   PPRO,#1                     
*** _________________________________________^
*** WARNING #A52 IN 473 (Src\JC.asm, LINE 473): VALUE HAS BEEN TRUNCATED TO 8 BITS
0A5D 754302          474               MOV   PHASE,#FP               
*** _________________________________________^
*** WARNING #A52 IN 474 (Src\JC.asm, LINE 474): VALUE HAS BEEN TRUNCATED TO 8 BITS
0A60                 475     FFRE0:     
                     476               BR    !POSTP
*** ___________________________________^
*** _________________________________________^
*** ERROR #A9 IN 476 (Src\JC.asm, LINE 476): SYNTAX ERROR
*** ERROR #A3 IN 476 (Src\JC.asm, LINE 476): ILLEGAL CHARACTER
                     477     ;**************************************************************************************
0A60                 478     FFRE1:     
0A60 E547            479               MOV   A,BPPTR
*** ___________________________________________^
*** WARNING #A52 IN 479 (Src\JC.asm, LINE 479): VALUE HAS BEEN TRUNCATED TO 8 BITS
                     480               OR    A,IPTR2
*** ___________________________________^
*** ERROR #A9 IN 480 (Src\JC.asm, LINE 480): SYNTAX ERROR
                     481               BNZ   $FFRE0
*** ___________________________________^
*** ERROR #A9 IN 481 (Src\JC.asm, LINE 481): SYNTAX ERROR
                     482     ;++++++++++++++++++++++++++++++++++++++++++++++++++++++++++++++++++++++++++++++++++++++
0A62                 483     FFRE2:     
A51 MACRO ASSEMBLER  JC                                                                   12/18/2017 16:56:46 PAGE    14

0A62                 484               CALL  !CALBUF2
*** _________________________________________^
*** __________________________________________^
*** ERROR #A9 IN 484 (Src\JC.asm, LINE 484): SYNTAX ERROR
*** ERROR #A9 IN 484 (Src\JC.asm, LINE 484): SYNTAX ERROR
                     485               MOVW  AX,LASTL
*** ___________________________________^
*** ERROR #A9 IN 485 (Src\JC.asm, LINE 485): SYNTAX ERROR
                     486               CMPW  AX,#0
*** ___________________________________^
*** ERROR #A9 IN 486 (Src\JC.asm, LINE 486): SYNTAX ERROR
                     487               BNZ   $FFRE23
*** ___________________________________^
*** ERROR #A9 IN 487 (Src\JC.asm, LINE 487): SYNTAX ERROR
                     488               MOVW  AX,PA4
*** ___________________________________^
*** ERROR #A9 IN 488 (Src\JC.asm, LINE 488): SYNTAX ERROR
                     489               MOVW  LASTL,AX
*** ___________________________________^
*** ERROR #A9 IN 489 (Src\JC.asm, LINE 489): SYNTAX ERROR
                     490               BR    !POSTP
*** ___________________________________^
*** _________________________________________^
*** ERROR #A9 IN 490 (Src\JC.asm, LINE 490): SYNTAX ERROR
*** ERROR #A3 IN 490 (Src\JC.asm, LINE 490): ILLEGAL CHARACTER
                     491     ;**************************************************************************************
                     492     ;计算VAVG
0A62                 493     FFRE23:
0A62 E53A            494             MOV     A,LASTL
*** ___________________________________________^
*** WARNING #A52 IN 494 (Src\JC.asm, LINE 494): VALUE HAS BEEN TRUNCATED TO 8 BITS
                     495             SUB     A,PA4
*** _________________________________^
*** ERROR #A9 IN 495 (Src\JC.asm, LINE 495): SYNTAX ERROR
0A64 F520            496             MOV     PA0,A
*** _________________________________________^
*** WARNING #A52 IN 496 (Src\JC.asm, LINE 496): VALUE HAS BEEN TRUNCATED TO 8 BITS
0A66 E53B            497             MOV     A,LASTH
*** ___________________________________________^
*** WARNING #A52 IN 497 (Src\JC.asm, LINE 497): VALUE HAS BEEN TRUNCATED TO 8 BITS
                     498             SUBC    A,PA5
*** _________________________________^
*** ERROR #A9 IN 498 (Src\JC.asm, LINE 498): SYNTAX ERROR
0A68 F521            499             MOV     PA1,A
*** _________________________________________^
*** WARNING #A52 IN 499 (Src\JC.asm, LINE 499): VALUE HAS BEEN TRUNCATED TO 8 BITS
                     500               BNC   $FFRE24
*** ___________________________________^
*** ERROR #A9 IN 500 (Src\JC.asm, LINE 500): SYNTAX ERROR
0A6A                 501     FFRE23A:
0A6A 752000          502               MOV   PA0,#0
*** _________________________________________^
*** WARNING #A52 IN 502 (Src\JC.asm, LINE 502): VALUE HAS BEEN TRUNCATED TO 8 BITS
0A6D 752100          503               MOV   PA1,#0
*** _________________________________________^
*** WARNING #A52 IN 503 (Src\JC.asm, LINE 503): VALUE HAS BEEN TRUNCATED TO 8 BITS
                     504               BR    !FFRE3
*** ___________________________________^
*** _________________________________________^
*** ERROR #A9 IN 504 (Src\JC.asm, LINE 504): SYNTAX ERROR
*** ERROR #A3 IN 504 (Src\JC.asm, LINE 504): ILLEGAL CHARACTER
0A70                 505     FFRE24:    
                     506                       MOVW  AX,PA4
*** ___________________________________________^
*** ERROR #A9 IN 506 (Src\JC.asm, LINE 506): SYNTAX ERROR
                     507                       MOVW  LASTL,AX
A51 MACRO ASSEMBLER  JC                                                                   12/18/2017 16:56:46 PAGE    15

*** ___________________________________________^
*** ERROR #A9 IN 507 (Src\JC.asm, LINE 507): SYNTAX ERROR
0A70 752255          508                       MOV   PA2,#55H
*** _________________________________________________^
*** WARNING #A52 IN 508 (Src\JC.asm, LINE 508): VALUE HAS BEEN TRUNCATED TO 8 BITS
0A73                 509                       CALL  !UMUL
*** _________________________________________________^
*** __________________________________________________^
*** ERROR #A9 IN 509 (Src\JC.asm, LINE 509): SYNTAX ERROR
*** ERROR #A9 IN 509 (Src\JC.asm, LINE 509): SYNTAX ERROR
0A73 752300          510                       MOV   PA3,#0
*** _________________________________________________^
*** WARNING #A52 IN 510 (Src\JC.asm, LINE 510): VALUE HAS BEEN TRUNCATED TO 8 BITS
0A76 752500          511                       MOV   PA5,#0
*** _________________________________________________^
*** WARNING #A52 IN 511 (Src\JC.asm, LINE 511): VALUE HAS BEEN TRUNCATED TO 8 BITS
0A79 752464          512                       MOV   PA4,#64H
*** _________________________________________________^
*** WARNING #A52 IN 512 (Src\JC.asm, LINE 512): VALUE HAS BEEN TRUNCATED TO 8 BITS
0A7C                 513                       CALL  !UDIV
*** _________________________________________________^
*** __________________________________________________^
*** ERROR #A9 IN 513 (Src\JC.asm, LINE 513): SYNTAX ERROR
*** ERROR #A9 IN 513 (Src\JC.asm, LINE 513): SYNTAX ERROR
0A7C                 514     FFRE3:     
                     515               CMP   PA1,#0
*** ___________________________________^
*** ERROR #A9 IN 515 (Src\JC.asm, LINE 515): SYNTAX ERROR
                     516               BZ    $FFRE4
*** ___________________________________^
*** ERROR #A9 IN 516 (Src\JC.asm, LINE 516): SYNTAX ERROR
0A7C 7520FF          517               MOV   PA0,#0FFH
*** _________________________________________^
*** WARNING #A52 IN 517 (Src\JC.asm, LINE 517): VALUE HAS BEEN TRUNCATED TO 8 BITS
0A7F                 518     FFRE4:         
0A7F E520            519               MOV   A,PA0
*** ___________________________________________^
*** WARNING #A52 IN 519 (Src\JC.asm, LINE 519): VALUE HAS BEEN TRUNCATED TO 8 BITS
0A81 F54F            520               MOV   VAVG,A  
*** _________________________________________^
*** WARNING #A52 IN 520 (Src\JC.asm, LINE 520): VALUE HAS BEEN TRUNCATED TO 8 BITS
0A83                 521               CALL  !CALY                                   
*** _________________________________________^
*** __________________________________________^
*** ERROR #A9 IN 521 (Src\JC.asm, LINE 521): SYNTAX ERROR
*** ERROR #A9 IN 521 (Src\JC.asm, LINE 521): SYNTAX ERROR
                     522     ;**************************************************************************************
0A83                 523     FFRE5:
                     524                       CMP   DISPTIME,#3H
*** ___________________________________________^
*** ERROR #A9 IN 524 (Src\JC.asm, LINE 524): SYNTAX ERROR
                     525                       BNC   $FFRE9
*** ___________________________________________^
*** ERROR #A9 IN 525 (Src\JC.asm, LINE 525): SYNTAX ERROR
0A83                 526     FFRE6:     
0A83 0548            527                INC  DISPTIME
*** _________________________________________^
*** WARNING #A52 IN 527 (Src\JC.asm, LINE 527): VALUE HAS BEEN TRUNCATED TO 8 BITS
0A85                 528     FFRE7:  
                     529                        CMP  DISPTIME,#3
*** ____________________________________________^
*** ERROR #A9 IN 529 (Src\JC.asm, LINE 529): SYNTAX ERROR
                     530                        BNC  $FFRE9
*** ____________________________________________^
*** ERROR #A9 IN 530 (Src\JC.asm, LINE 530): SYNTAX ERROR
                     531                        BR   $FFREEND
A51 MACRO ASSEMBLER  JC                                                                   12/18/2017 16:56:46 PAGE    16

*** ____________________________________________^
*** ERROR #A9 IN 531 (Src\JC.asm, LINE 531): SYNTAX ERROR
0A85                 532     FFRE9:
                     533                       BF    FIRST8,$FFREEND
*** ___________________________________________^
*** ERROR #A9 IN 533 (Src\JC.asm, LINE 533): SYNTAX ERROR
                     534                       CLR1  FIRST8
*** ___________________________________________^
*** ERROR #A9 IN 534 (Src\JC.asm, LINE 534): SYNTAX ERROR
                     535                       MOVW  HL,#BUFL
*** ___________________________________________^
*** ERROR #A9 IN 535 (Src\JC.asm, LINE 535): SYNTAX ERROR
0A85                 536                       MOV   A,[HL]
*** ___________________________________________________^
*** ____________________________________________________^
*** ______________________________________________________^
*** ERROR #A9 IN 536 (Src\JC.asm, LINE 536): SYNTAX ERROR
*** ERROR #A9 IN 536 (Src\JC.asm, LINE 536): SYNTAX ERROR
*** ERROR #A9 IN 536 (Src\JC.asm, LINE 536): SYNTAX ERROR
0A85 F54B            537                       MOV   BEGINPL,A
*** _________________________________________________^
*** WARNING #A52 IN 537 (Src\JC.asm, LINE 537): VALUE HAS BEEN TRUNCATED TO 8 BITS
0A87                 538                       MOV   A,[HL+6]
*** ___________________________________________________^
*** ____________________________________________________^
*** ________________________________________________________^
*** ERROR #A9 IN 538 (Src\JC.asm, LINE 538): SYNTAX ERROR
*** ERROR #A9 IN 538 (Src\JC.asm, LINE 538): SYNTAX ERROR
*** ERROR #A9 IN 538 (Src\JC.asm, LINE 538): SYNTAX ERROR
0A87 F54A            539                       MOV   BEGINPH,A
*** _________________________________________________^
*** WARNING #A52 IN 539 (Src\JC.asm, LINE 539): VALUE HAS BEEN TRUNCATED TO 8 BITS
0A89                 540     FFREEND:   
                     541                       BR    !POSTP
*** ___________________________________________^
*** _________________________________________________^
*** ERROR #A9 IN 541 (Src\JC.asm, LINE 541): SYNTAX ERROR
*** ERROR #A3 IN 541 (Src\JC.asm, LINE 541): ILLEGAL CHARACTER
                     542     ;**************************************************************************************
                     543     ; 上?沿检出
0A89                 544     FREADR:
0A89                 545                   CALL      !DRE
*** _________________________________________________^
*** __________________________________________________^
*** ERROR #A9 IN 545 (Src\JC.asm, LINE 545): SYNTAX ERROR
*** ERROR #A9 IN 545 (Src\JC.asm, LINE 545): SYNTAX ERROR
                     546                   CMP       A,#0
*** _______________________________________^
*** ERROR #A9 IN 546 (Src\JC.asm, LINE 546): SYNTAX ERROR
                     547               BZ    $FFREEND                        
*** ___________________________________^
*** ERROR #A9 IN 547 (Src\JC.asm, LINE 547): SYNTAX ERROR
                     548               CMP   COUNT,#15
*** ___________________________________^
*** ERROR #A9 IN 548 (Src\JC.asm, LINE 548): SYNTAX ERROR
                     549               BC    $FFREEND_C 
*** ___________________________________^
*** ERROR #A9 IN 549 (Src\JC.asm, LINE 549): SYNTAX ERROR
0A89 754000          550               MOV   H_HEART_C,#0                    
*** _________________________________________^
*** WARNING #A52 IN 550 (Src\JC.asm, LINE 550): VALUE HAS BEEN TRUNCATED TO 8 BITS
0A8C 756502          551               MOV   PPRO,#2                         
*** _________________________________________^
*** WARNING #A52 IN 551 (Src\JC.asm, LINE 551): VALUE HAS BEEN TRUNCATED TO 8 BITS
0A8F 754302          552               MOV   PHASE,#FP                       
*** _________________________________________^
A51 MACRO ASSEMBLER  JC                                                                   12/18/2017 16:56:46 PAGE    17

*** WARNING #A52 IN 552 (Src\JC.asm, LINE 552): VALUE HAS BEEN TRUNCATED TO 8 BITS
0A92                 553     FREA1:     
0A92 E549            554               MOV   A,BPTR
*** ___________________________________________^
*** WARNING #A52 IN 554 (Src\JC.asm, LINE 554): VALUE HAS BEEN TRUNCATED TO 8 BITS
                     555               AND   A,#01FH
*** ___________________________________^
*** ERROR #A9 IN 555 (Src\JC.asm, LINE 555): SYNTAX ERROR
0A94 F5F0            556               MOV   B,A
                     557               MOVW  HL,#HRBUF
*** ___________________________________^
*** ERROR #A9 IN 557 (Src\JC.asm, LINE 557): SYNTAX ERROR
0A96 E544            558               MOV   A,COUNT
*** ___________________________________________^
*** WARNING #A52 IN 558 (Src\JC.asm, LINE 558): VALUE HAS BEEN TRUNCATED TO 8 BITS
                     559               SUB   A,#4
*** ___________________________________^
*** ERROR #A9 IN 559 (Src\JC.asm, LINE 559): SYNTAX ERROR
0A98                 560               MOV   [HL+B],A
*** _________________________________________^
*** __________________________________________^
*** ______________________________________________^
*** ERROR #A9 IN 560 (Src\JC.asm, LINE 560): SYNTAX ERROR
*** ERROR #A9 IN 560 (Src\JC.asm, LINE 560): SYNTAX ERROR
*** ERROR #A9 IN 560 (Src\JC.asm, LINE 560): SYNTAX ERROR
0A98 0549            561               INC   BPTR
*** _________________________________________^
*** WARNING #A52 IN 561 (Src\JC.asm, LINE 561): VALUE HAS BEEN TRUNCATED TO 8 BITS
0A9A                 562               CALL !ACALVAVG
*** ________________________________________^
*** _________________________________________^
*** ERROR #A9 IN 562 (Src\JC.asm, LINE 562): SYNTAX ERROR
*** ERROR #A9 IN 562 (Src\JC.asm, LINE 562): SYNTAX ERROR
0A9A                 563     FREEND:
                     564                   BR        !POSTP  
*** _______________________________________^
*** _________________________________________________^
*** ERROR #A9 IN 564 (Src\JC.asm, LINE 564): SYNTAX ERROR
*** ERROR #A3 IN 564 (Src\JC.asm, LINE 564): ILLEGAL CHARACTER
0A9A                 565     FFREEND_C:
0A9A 0540            566               INC   H_HEART_C
*** _________________________________________^
*** WARNING #A52 IN 566 (Src\JC.asm, LINE 566): VALUE HAS BEEN TRUNCATED TO 8 BITS
                     567               CMP   H_HEART_C,#10
*** ___________________________________^
*** ERROR #A9 IN 567 (Src\JC.asm, LINE 567): SYNTAX ERROR
                     568               BC    $FREEND
*** ___________________________________^
*** ERROR #A9 IN 568 (Src\JC.asm, LINE 568): SYNTAX ERROR
                     569               SET1  HRERR_1 
*** ___________________________________^
*** ERROR #A9 IN 569 (Src\JC.asm, LINE 569): SYNTAX ERROR
                     570               BR    !POSTP
*** ___________________________________^
*** _________________________________________^
*** ERROR #A9 IN 570 (Src\JC.asm, LINE 570): SYNTAX ERROR
*** ERROR #A3 IN 570 (Src\JC.asm, LINE 570): ILLEGAL CHARACTER
                     571     ;**************************************************************************************
                     572     ; 峰值检出
0A9C                 573     FPADR:
0A9C                 574                   CALL      !DPEAK                  
*** _________________________________________________^
*** __________________________________________________^
*** ERROR #A9 IN 574 (Src\JC.asm, LINE 574): SYNTAX ERROR
*** ERROR #A9 IN 574 (Src\JC.asm, LINE 574): SYNTAX ERROR
                     575               CMP   A,#1
A51 MACRO ASSEMBLER  JC                                                                   12/18/2017 16:56:46 PAGE    18

*** ___________________________________^
*** ERROR #A9 IN 575 (Src\JC.asm, LINE 575): SYNTAX ERROR
                     576               BNZ   $FPADR2                 
*** ___________________________________^
*** ERROR #A9 IN 576 (Src\JC.asm, LINE 576): SYNTAX ERROR
0A9C 754303          577               MOV   PHASE,#FEP
*** _________________________________________^
*** WARNING #A52 IN 577 (Src\JC.asm, LINE 577): VALUE HAS BEEN TRUNCATED TO 8 BITS
0A9F                 578     FPADR1:                 
                     579               CMP   COUNT1,#15H                             
*** ___________________________________^
*** ERROR #A9 IN 579 (Src\JC.asm, LINE 579): SYNTAX ERROR
                     580               BNC   $FPADR3                 
*** ___________________________________^
*** ERROR #A9 IN 580 (Src\JC.asm, LINE 580): SYNTAX ERROR
                     581               BR    $FPEND                  
*** ___________________________________^
*** ERROR #A9 IN 581 (Src\JC.asm, LINE 581): SYNTAX ERROR
0A9F                 582     FPADR2:   
                     583               CMP   COUNT1,#15H
*** ___________________________________^
*** ERROR #A9 IN 583 (Src\JC.asm, LINE 583): SYNTAX ERROR
                     584               BC    $FPEND                  
*** ___________________________________^
*** ERROR #A9 IN 584 (Src\JC.asm, LINE 584): SYNTAX ERROR
0A9F                 585     FPADR3:
0A9F 754300          586               MOV   PHASE,#FFRE             
*** _________________________________________^
*** WARNING #A52 IN 586 (Src\JC.asm, LINE 586): VALUE HAS BEEN TRUNCATED TO 8 BITS
                     587                                                     
0AA2                 588     FPEND:
                     589                   BR   !POSTP                       
*** _______________________________________^
*** ____________________________________________^
*** ERROR #A9 IN 589 (Src\JC.asm, LINE 589): SYNTAX ERROR
*** ERROR #A3 IN 589 (Src\JC.asm, LINE 589): ILLEGAL CHARACTER
                     590     ;结束点检出>>>>>>>>>>>>>>>>>>>>
0AA2                 591     FEPADR:    
0AA2 7400            592               MOV   A,#0
0AA4                 593               CALL  !LDOPTRA
*** _________________________________________^
*** __________________________________________^
*** ERROR #A9 IN 593 (Src\JC.asm, LINE 593): SYNTAX ERROR
*** ERROR #A9 IN 593 (Src\JC.asm, LINE 593): SYNTAX ERROR
0AA4 E536            594               MOV   A,STARTPL
*** ___________________________________________^
*** WARNING #A52 IN 594 (Src\JC.asm, LINE 594): VALUE HAS BEEN TRUNCATED TO 8 BITS
                     595               SUB   A,PA0
*** ___________________________________^
*** ERROR #A9 IN 595 (Src\JC.asm, LINE 595): SYNTAX ERROR
0AA6 E537            596               MOV   A,STARTPH
*** ___________________________________________^
*** WARNING #A52 IN 596 (Src\JC.asm, LINE 596): VALUE HAS BEEN TRUNCATED TO 8 BITS
                     597               SUBC  A,PA1
*** ___________________________________^
*** ERROR #A9 IN 597 (Src\JC.asm, LINE 597): SYNTAX ERROR
                     598               BC    $FEP2
*** ___________________________________^
*** ERROR #A9 IN 598 (Src\JC.asm, LINE 598): SYNTAX ERROR
0AA8 754301          599               MOV   PHASE,#FRE
*** _________________________________________^
*** WARNING #A52 IN 599 (Src\JC.asm, LINE 599): VALUE HAS BEEN TRUNCATED TO 8 BITS
                     600               BR    !FEPEND
*** ___________________________________^
*** _________________________________________^
*** ERROR #A9 IN 600 (Src\JC.asm, LINE 600): SYNTAX ERROR
A51 MACRO ASSEMBLER  JC                                                                   12/18/2017 16:56:46 PAGE    19

*** ERROR #A3 IN 600 (Src\JC.asm, LINE 600): ILLEGAL CHARACTER
0AAB                 601     FEP2:
                     602               CMP   COUNT,#85      ;33H
*** ___________________________________^
*** ERROR #A9 IN 602 (Src\JC.asm, LINE 602): SYNTAX ERROR
                     603               BNC   $FPADR3
*** ___________________________________^
*** ERROR #A9 IN 603 (Src\JC.asm, LINE 603): SYNTAX ERROR
0AAB                 604     FEPEND:   
                     605                       BR    !POSTP
*** ___________________________________________^
*** _________________________________________________^
*** ERROR #A9 IN 605 (Src\JC.asm, LINE 605): SYNTAX ERROR
*** ERROR #A3 IN 605 (Src\JC.asm, LINE 605): ILLEGAL CHARACTER
                     606     ;*-------后处理-----------------
0AAB                 607     POSTP:  
0AAB 7400            608               MOV   A,#0
0AAD                 609               CALL  !LDOPTRA                ;当前压力值―A
*** _________________________________________^
*** __________________________________________^
*** ERROR #A9 IN 609 (Src\JC.asm, LINE 609): SYNTAX ERROR
*** ERROR #A9 IN 609 (Src\JC.asm, LINE 609): SYNTAX ERROR
                     610               CMPW  AX,#1000
*** ___________________________________^
*** ERROR #A9 IN 610 (Src\JC.asm, LINE 610): SYNTAX ERROR
                     611               BNC    $POSTPA
*** ___________________________________^
*** ERROR #A9 IN 611 (Src\JC.asm, LINE 611): SYNTAX ERROR
                     612     ;---------------------modify_27_01-------------------------
0AAD                 613     POSTPB:
                     614               ;CLR1  PUMP
                     615               ;CLR1 EMV
                     616                       BR    !TZH
*** ___________________________________________^
*** _________________________________________________^
*** ERROR #A9 IN 616 (Src\JC.asm, LINE 616): SYNTAX ERROR
*** ERROR #A3 IN 616 (Src\JC.asm, LINE 616): ILLEGAL CHARACTER
                     617     ;---------------------modify_27_01-------------------------
0AAD                 618     POSTPA:         
                     619               CMP   COUNT,#7DH
*** ___________________________________^
*** ERROR #A9 IN 619 (Src\JC.asm, LINE 619): SYNTAX ERROR
                     620               BC    $POSTP0                         
*** ___________________________________^
*** ERROR #A9 IN 620 (Src\JC.asm, LINE 620): SYNTAX ERROR
                     621               CMP   PHASE,#FRE
*** ___________________________________^
*** ERROR #A9 IN 621 (Src\JC.asm, LINE 621): SYNTAX ERROR
                     622               BNZ   $POSTP02
*** ___________________________________^
*** ERROR #A9 IN 622 (Src\JC.asm, LINE 622): SYNTAX ERROR
0AAD                 623     POSTP01:   
0AAD 756502          624               MOV   PPRO,#2                         
*** _________________________________________^
*** WARNING #A52 IN 624 (Src\JC.asm, LINE 624): VALUE HAS BEEN TRUNCATED TO 8 BITS
                     625               BR    $POSTP03
*** ___________________________________^
*** ERROR #A9 IN 625 (Src\JC.asm, LINE 625): SYNTAX ERROR
0AB0                 626     POSTP02:
0AB0 7405            627               MOV   A,#5                            
0AB2                 628               CALL  !LDOPTRA
*** _________________________________________^
*** __________________________________________^
*** ERROR #A9 IN 628 (Src\JC.asm, LINE 628): SYNTAX ERROR
*** ERROR #A9 IN 628 (Src\JC.asm, LINE 628): SYNTAX ERROR
                     629               MOVW  AX,PA0
A51 MACRO ASSEMBLER  JC                                                                   12/18/2017 16:56:46 PAGE    20

*** ___________________________________^
*** ERROR #A9 IN 629 (Src\JC.asm, LINE 629): SYNTAX ERROR
                     630               MOVW  STARTPL,AX                      
*** ___________________________________^
*** ERROR #A9 IN 630 (Src\JC.asm, LINE 630): SYNTAX ERROR
0AB2 754405          631               MOV   COUNT,#5                        
*** _________________________________________^
*** WARNING #A52 IN 631 (Src\JC.asm, LINE 631): VALUE HAS BEEN TRUNCATED TO 8 BITS
0AB5                 632     POSTP03:   
0AB5 754300          633               MOV   PHASE,#FFRE                     
*** _________________________________________^
*** WARNING #A52 IN 633 (Src\JC.asm, LINE 633): VALUE HAS BEEN TRUNCATED TO 8 BITS
0AB8                 634     POSTP0:    
                     635               CMP   PPRO,#2                                 
*** ___________________________________^
*** ERROR #A9 IN 635 (Src\JC.asm, LINE 635): SYNTAX ERROR
                     636               BZ    $POSTP0YT
*** ___________________________________^
*** ERROR #A9 IN 636 (Src\JC.asm, LINE 636): SYNTAX ERROR
                     637               BR    !POSTP2
*** ___________________________________^
*** _________________________________________^
*** ERROR #A9 IN 637 (Src\JC.asm, LINE 637): SYNTAX ERROR
*** ERROR #A3 IN 637 (Src\JC.asm, LINE 637): ILLEGAL CHARACTER
0AB8                 638     POSTP0YT:                                                       
0AB8                 639               CALL  !CALPEAK                        
*** _________________________________________^
*** __________________________________________^
*** ERROR #A9 IN 639 (Src\JC.asm, LINE 639): SYNTAX ERROR
*** ERROR #A9 IN 639 (Src\JC.asm, LINE 639): SYNTAX ERROR
                     640     ;*-------重入判断-----------------              
                     641               CMP   BPPTR,#3                
*** ___________________________________^
*** ERROR #A9 IN 641 (Src\JC.asm, LINE 641): SYNTAX ERROR
                     642               BNC   $PCHREND
*** ___________________________________^
*** ERROR #A9 IN 642 (Src\JC.asm, LINE 642): SYNTAX ERROR
                     643               CMP   COUNT1,#7                               
*** ___________________________________^
*** ERROR #A9 IN 643 (Src\JC.asm, LINE 643): SYNTAX ERROR
                     644               BC    $PCHREND
*** ___________________________________^
*** ERROR #A9 IN 644 (Src\JC.asm, LINE 644): SYNTAX ERROR
                     645               MOVW  AX,PEAKPL               
*** ___________________________________^
*** ERROR #A9 IN 645 (Src\JC.asm, LINE 645): SYNTAX ERROR
                     646               CMPW  AX,#4AH
*** ___________________________________^
*** ERROR #A9 IN 646 (Src\JC.asm, LINE 646): SYNTAX ERROR
                     647               BC    $PCHREND
*** ___________________________________^
*** ERROR #A9 IN 647 (Src\JC.asm, LINE 647): SYNTAX ERROR
0AB8 E54A            648               MOV   A,BEGINPH               
*** ___________________________________________^
*** WARNING #A52 IN 648 (Src\JC.asm, LINE 648): VALUE HAS BEEN TRUNCATED TO 8 BITS
                     649               SUB   A,#5
*** ___________________________________^
*** ERROR #A9 IN 649 (Src\JC.asm, LINE 649): SYNTAX ERROR
0ABA FD              650               MOV   R5,A
0ABB E54B            651               MOV   A,BEGINPL
*** ___________________________________________^
*** WARNING #A52 IN 651 (Src\JC.asm, LINE 651): VALUE HAS BEEN TRUNCATED TO 8 BITS
0ABD FC              652               MOV   R4,A
                     653               SUB   A,STARTPL
*** ___________________________________^
*** ERROR #A9 IN 653 (Src\JC.asm, LINE 653): SYNTAX ERROR
A51 MACRO ASSEMBLER  JC                                                                   12/18/2017 16:56:46 PAGE    21

0ABE ED              654               MOV   A,R5
                     655               SUBC  A,STARTPH
*** ___________________________________^
*** ERROR #A9 IN 655 (Src\JC.asm, LINE 655): SYNTAX ERROR
                     656               BNC   $PCHREND
*** ___________________________________^
*** ERROR #A9 IN 656 (Src\JC.asm, LINE 656): SYNTAX ERROR
0ABF                 657               CALL  !MAXPREUP
*** _________________________________________^
*** __________________________________________^
*** ERROR #A9 IN 657 (Src\JC.asm, LINE 657): SYNTAX ERROR
*** ERROR #A9 IN 657 (Src\JC.asm, LINE 657): SYNTAX ERROR
                     658               CMP   A,#0
*** ___________________________________^
*** ERROR #A9 IN 658 (Src\JC.asm, LINE 658): SYNTAX ERROR
                     659               BZ    $PCHREND
*** ___________________________________^
*** ERROR #A9 IN 659 (Src\JC.asm, LINE 659): SYNTAX ERROR
0ABF                 660     RETRY1:    
                     661                       BR    !JCL81
*** ___________________________________________^
*** _________________________________________________^
*** ERROR #A9 IN 661 (Src\JC.asm, LINE 661): SYNTAX ERROR
*** ERROR #A3 IN 661 (Src\JC.asm, LINE 661): ILLEGAL CHARACTER
                     662     
                     663     ;*-------峰值去干扰--------------
0ABF                 664     PCHREND:
                     665                       MOVW  AX,PEAKPL
*** ___________________________________________^
*** ERROR #A9 IN 665 (Src\JC.asm, LINE 665): SYNTAX ERROR
                     666                       CMPW  AX,#400H
*** ___________________________________________^
*** ERROR #A9 IN 666 (Src\JC.asm, LINE 666): SYNTAX ERROR
                     667               BNC   $POSTP1                         
*** ___________________________________^
*** ERROR #A9 IN 667 (Src\JC.asm, LINE 667): SYNTAX ERROR
0ABF                 668                       CALL  !TOBP                           
*** _________________________________________________^
*** __________________________________________________^
*** ERROR #A9 IN 668 (Src\JC.asm, LINE 668): SYNTAX ERROR
*** ERROR #A9 IN 668 (Src\JC.asm, LINE 668): SYNTAX ERROR
0ABF 0547            669               INC   BPPTR                           
*** _________________________________________^
*** WARNING #A52 IN 669 (Src\JC.asm, LINE 669): VALUE HAS BEEN TRUNCATED TO 8 BITS
0AC1                 670               CALL  !ENOISE                         
*** _________________________________________^
*** __________________________________________^
*** ERROR #A9 IN 670 (Src\JC.asm, LINE 670): SYNTAX ERROR
*** ERROR #A9 IN 670 (Src\JC.asm, LINE 670): SYNTAX ERROR
0AC1                 671     POSTP1:    
                     672               BR    !POSTP3
*** ___________________________________^
*** _________________________________________^
*** ERROR #A9 IN 672 (Src\JC.asm, LINE 672): SYNTAX ERROR
*** ERROR #A3 IN 672 (Src\JC.asm, LINE 672): ILLEGAL CHARACTER
0AC1                 673     POSTP2:
                     674               CMP   PPRO,#1
*** ___________________________________^
*** ERROR #A9 IN 674 (Src\JC.asm, LINE 674): SYNTAX ERROR
                     675               BZ    $POSTP3                         
*** ___________________________________^
*** ERROR #A9 IN 675 (Src\JC.asm, LINE 675): SYNTAX ERROR
                     676               BR    !POSTPMC                        
*** ___________________________________^
*** _________________________________________^
*** ERROR #A9 IN 676 (Src\JC.asm, LINE 676): SYNTAX ERROR
A51 MACRO ASSEMBLER  JC                                                                   12/18/2017 16:56:46 PAGE    22

*** ERROR #A3 IN 676 (Src\JC.asm, LINE 676): ILLEGAL CHARACTER
0AC1                 677     POSTP3:
                     678               CLR1  JCDFLAG.4                       
*** ___________________________________^
*** ERROR #A9 IN 678 (Src\JC.asm, LINE 678): SYNTAX ERROR
0AC1 754404          679               MOV   COUNT,#4                        
*** _________________________________________^
*** WARNING #A52 IN 679 (Src\JC.asm, LINE 679): VALUE HAS BEEN TRUNCATED TO 8 BITS
0AC4                 680               CALL  !DRE                            
*** _________________________________________^
*** __________________________________________^
*** ERROR #A9 IN 680 (Src\JC.asm, LINE 680): SYNTAX ERROR
*** ERROR #A9 IN 680 (Src\JC.asm, LINE 680): SYNTAX ERROR
0AC4 E520            681               MOV   A,PA0
*** ___________________________________________^
*** WARNING #A52 IN 681 (Src\JC.asm, LINE 681): VALUE HAS BEEN TRUNCATED TO 8 BITS
0AC6 F545            682               MOV   COUNT1,A                
*** _________________________________________^
*** WARNING #A52 IN 682 (Src\JC.asm, LINE 682): VALUE HAS BEEN TRUNCATED TO 8 BITS
0AC8 E544            683               MOV   A,COUNT
*** ___________________________________________^
*** WARNING #A52 IN 683 (Src\JC.asm, LINE 683): VALUE HAS BEEN TRUNCATED TO 8 BITS
                     684               SUB   A,COUNT1
*** ___________________________________^
*** ERROR #A9 IN 684 (Src\JC.asm, LINE 684): SYNTAX ERROR
0ACA                 685               CALL  !LDOPTRA
*** _________________________________________^
*** __________________________________________^
*** ERROR #A9 IN 685 (Src\JC.asm, LINE 685): SYNTAX ERROR
*** ERROR #A9 IN 685 (Src\JC.asm, LINE 685): SYNTAX ERROR
                     686               MOVW  PEAKPL,AX               
*** ___________________________________^
*** ERROR #A9 IN 686 (Src\JC.asm, LINE 686): SYNTAX ERROR
0ACA 7404            687               MOV   A,#4
0ACC                 688               CALL  !LDOPTRA
*** _________________________________________^
*** __________________________________________^
*** ERROR #A9 IN 688 (Src\JC.asm, LINE 688): SYNTAX ERROR
*** ERROR #A9 IN 688 (Src\JC.asm, LINE 688): SYNTAX ERROR
                     689               MOVW  STARTPL,AX              
*** ___________________________________^
*** ERROR #A9 IN 689 (Src\JC.asm, LINE 689): SYNTAX ERROR
                     690               ;CALL  !DISPRESS         ;//显示当前压力值                    
                     691               ;MOV  TBEEP,#6
                     692               ;SET1 BZOE
0ACC 75410A          693               MOV   HEARTCNT,#10                                    
*** _________________________________________^
*** WARNING #A52 IN 693 (Src\JC.asm, LINE 693): VALUE HAS BEEN TRUNCATED TO 8 BITS
                     694               ;MOV  A,#HEART          ;//显示心率符号
                     695               ;CALL         !SYMBOL                                 
0ACF 753D00          696               MOV   MPT,#0                                  
*** _________________________________________^
*** WARNING #A52 IN 696 (Src\JC.asm, LINE 696): VALUE HAS BEEN TRUNCATED TO 8 BITS
0AD2                 697               CALL  !DMPEAK
*** _________________________________________^
*** __________________________________________^
*** ERROR #A9 IN 697 (Src\JC.asm, LINE 697): SYNTAX ERROR
*** ERROR #A9 IN 697 (Src\JC.asm, LINE 697): SYNTAX ERROR
                     698               ;结束探测
0AD2                 699     POSTM2:    
                     700               CMP   BPPTR,#0
*** ___________________________________^
*** ERROR #A9 IN 700 (Src\JC.asm, LINE 700): SYNTAX ERROR
                     701               BZ    $POSTPM4
*** ___________________________________^
*** ERROR #A9 IN 701 (Src\JC.asm, LINE 701): SYNTAX ERROR
A51 MACRO ASSEMBLER  JC                                                                   12/18/2017 16:56:46 PAGE    23

0AD2 E547            702               MOV   A,BPPTR
*** ___________________________________________^
*** WARNING #A52 IN 702 (Src\JC.asm, LINE 702): VALUE HAS BEEN TRUNCATED TO 8 BITS
0AD4                 703               MOV   X,A
*** _________________________________________^
*** ERROR #A45 IN 703 (Src\JC.asm, LINE 703): UNDEFINED SYMBOL (PASS-2)
0AD6 7400            704               MOV   A,#0
                     705               ADDW  AX,#BPDATAP
*** ___________________________________^
*** ERROR #A9 IN 705 (Src\JC.asm, LINE 705): SYNTAX ERROR
                     706               MOVW  HL,AX
*** ___________________________________^
*** ERROR #A9 IN 706 (Src\JC.asm, LINE 706): SYNTAX ERROR
                     707               DECW  HL
*** ___________________________________^
*** ERROR #A9 IN 707 (Src\JC.asm, LINE 707): SYNTAX ERROR
0AD8                 708               MOV   A,[HL]                          
*** ___________________________________________^
*** ____________________________________________^
*** ______________________________________________^
*** ERROR #A9 IN 708 (Src\JC.asm, LINE 708): SYNTAX ERROR
*** ERROR #A9 IN 708 (Src\JC.asm, LINE 708): SYNTAX ERROR
*** ERROR #A9 IN 708 (Src\JC.asm, LINE 708): SYNTAX ERROR
                     709               CMP   A,#78H              
*** ___________________________________^
*** ERROR #A9 IN 709 (Src\JC.asm, LINE 709): SYNTAX ERROR
                     710               BNC   $POSTPM4          
*** ___________________________________^
*** ERROR #A9 IN 710 (Src\JC.asm, LINE 710): SYNTAX ERROR
0AD8 752503          711               MOV   PA5,#3               
*** _________________________________________^
*** WARNING #A52 IN 711 (Src\JC.asm, LINE 711): VALUE HAS BEEN TRUNCATED TO 8 BITS
                     712               CMP   A,#3CH              
*** ___________________________________^
*** ERROR #A9 IN 712 (Src\JC.asm, LINE 712): SYNTAX ERROR
                     713               BC    $POSTM3
*** ___________________________________^
*** ERROR #A9 IN 713 (Src\JC.asm, LINE 713): SYNTAX ERROR
0ADB 752505          714               MOV   PA5,#5
*** _________________________________________^
*** WARNING #A52 IN 714 (Src\JC.asm, LINE 714): VALUE HAS BEEN TRUNCATED TO 8 BITS
0ADE                 715     POSTM3:
0ADE 7C48            716               MOV   R4,#DIAXISHU
0AE0                 717     POSTM30:   
0AE0 E547            718               MOV   A,BPPTR             
*** ___________________________________________^
*** WARNING #A52 IN 718 (Src\JC.asm, LINE 718): VALUE HAS BEEN TRUNCATED TO 8 BITS
                     719               SUB   A,PA5
*** ___________________________________^
*** ERROR #A9 IN 719 (Src\JC.asm, LINE 719): SYNTAX ERROR
                     720               BC    $POSTPM4
*** ___________________________________^
*** ERROR #A9 IN 720 (Src\JC.asm, LINE 720): SYNTAX ERROR
                     721               SUB   A,MAXVP
*** ___________________________________^
*** ERROR #A9 IN 721 (Src\JC.asm, LINE 721): SYNTAX ERROR
                     722               BZ    $POSTPM4
*** ___________________________________^
*** ERROR #A9 IN 722 (Src\JC.asm, LINE 722): SYNTAX ERROR
                     723               BC    $POSTPM4
*** ___________________________________^
*** ERROR #A9 IN 723 (Src\JC.asm, LINE 723): SYNTAX ERROR
                     724               SET1  NEGF
*** ___________________________________^
*** ERROR #A9 IN 724 (Src\JC.asm, LINE 724): SYNTAX ERROR
0AE2                 725     POSTM31:
A51 MACRO ASSEMBLER  JC                                                                   12/18/2017 16:56:46 PAGE    24

0AE2 E547            726               MOV   A,BPPTR
*** ___________________________________________^
*** WARNING #A52 IN 726 (Src\JC.asm, LINE 726): VALUE HAS BEEN TRUNCATED TO 8 BITS
                     727               SUB   A,PA5
*** ___________________________________^
*** ERROR #A9 IN 727 (Src\JC.asm, LINE 727): SYNTAX ERROR
0AE4                 728               XCH   A,X
*** ___________________________________________^
*** ERROR #A45 IN 728 (Src\JC.asm, LINE 728): UNDEFINED SYMBOL (PASS-2)
0AE6 EC              729               MOV   A,R4
0AE7                 730               CALL  !BPCMPB          
*** _________________________________________^
*** __________________________________________^
*** ERROR #A9 IN 730 (Src\JC.asm, LINE 730): SYNTAX ERROR
*** ERROR #A9 IN 730 (Src\JC.asm, LINE 730): SYNTAX ERROR
                     731               CMP   A,#0FFH
*** ___________________________________^
*** ERROR #A9 IN 731 (Src\JC.asm, LINE 731): SYNTAX ERROR
                     732               BNZ   $POSTM32            
*** ___________________________________^
*** ERROR #A9 IN 732 (Src\JC.asm, LINE 732): SYNTAX ERROR
                     733               SET1  MAXV072
*** ___________________________________^
*** ERROR #A9 IN 733 (Src\JC.asm, LINE 733): SYNTAX ERROR
                     734               BR    $POSTM33
*** ___________________________________^
*** ERROR #A9 IN 734 (Src\JC.asm, LINE 734): SYNTAX ERROR
0AE7                 735     POSTM32:  
                     736                       CLR1  NEGF
*** ___________________________________________^
*** ERROR #A9 IN 736 (Src\JC.asm, LINE 736): SYNTAX ERROR
0AE7                 737     POSTM33:
0AE7 1525            738                       DEC PA5
*** _______________________________________________^
*** WARNING #A52 IN 738 (Src\JC.asm, LINE 738): VALUE HAS BEEN TRUNCATED TO 8 BITS
                     739               CMP   PA5,#0
*** ___________________________________^
*** ERROR #A9 IN 739 (Src\JC.asm, LINE 739): SYNTAX ERROR
                     740               BNZ   $POSTM31
*** ___________________________________^
*** ERROR #A9 IN 740 (Src\JC.asm, LINE 740): SYNTAX ERROR
                     741               BF    NEGF,$POSTPM4
*** ___________________________________^
*** ERROR #A9 IN 741 (Src\JC.asm, LINE 741): SYNTAX ERROR
                     742               BR    !DEND                   
*** ___________________________________^
*** _________________________________________^
*** ERROR #A9 IN 742 (Src\JC.asm, LINE 742): SYNTAX ERROR
*** ERROR #A3 IN 742 (Src\JC.asm, LINE 742): ILLEGAL CHARACTER
0AE9                 743     POSTPM4:                                                        
                     744               CMP   BPPTR,#BPLEN        
*** ___________________________________^
*** ERROR #A9 IN 744 (Src\JC.asm, LINE 744): SYNTAX ERROR
                     745               BC    $POSTPMC                
*** ___________________________________^
*** ERROR #A9 IN 745 (Src\JC.asm, LINE 745): SYNTAX ERROR
0AE9                 746               MOV   X,#1
*** _________________________________________^
*** ERROR #A45 IN 746 (Src\JC.asm, LINE 746): UNDEFINED SYMBOL (PASS-2)
0AEC 7432            747               MOV   A,#32H
0AEE                 748               CALL  !BPCMPB
*** _________________________________________^
*** __________________________________________^
*** ERROR #A9 IN 748 (Src\JC.asm, LINE 748): SYNTAX ERROR
*** ERROR #A9 IN 748 (Src\JC.asm, LINE 748): SYNTAX ERROR
                     749               CMP   A,#0FFH          
A51 MACRO ASSEMBLER  JC                                                                   12/18/2017 16:56:46 PAGE    25

*** ___________________________________^
*** ERROR #A9 IN 749 (Src\JC.asm, LINE 749): SYNTAX ERROR
                     750               BNZ   $POSTPM5                
*** ___________________________________^
*** ERROR #A9 IN 750 (Src\JC.asm, LINE 750): SYNTAX ERROR
0AEE 752000          751               MOV   PA0,#0                  
*** _________________________________________^
*** WARNING #A52 IN 751 (Src\JC.asm, LINE 751): VALUE HAS BEEN TRUNCATED TO 8 BITS
                     752               BR    !POSTPMA                
*** ___________________________________^
*** _________________________________________^
*** ERROR #A9 IN 752 (Src\JC.asm, LINE 752): SYNTAX ERROR
*** ERROR #A3 IN 752 (Src\JC.asm, LINE 752): ILLEGAL CHARACTER
0AF1                 753     POSTPM5:
0AF1 E560            754               MOV   A,MAXVP                 
*** ___________________________________________^
*** WARNING #A52 IN 754 (Src\JC.asm, LINE 754): VALUE HAS BEEN TRUNCATED TO 8 BITS
0AF3 240A            755               ADD   A,#0AH
                     756               CMP   A,#BPLEN
*** ___________________________________^
*** ERROR #A9 IN 756 (Src\JC.asm, LINE 756): SYNTAX ERROR
                     757               BNC   $POSTPM6                
*** ___________________________________^
*** ERROR #A9 IN 757 (Src\JC.asm, LINE 757): SYNTAX ERROR
0AF5 7420            758               MOV   A,#BPLEN                
                     759               SUB   A,#8
*** ___________________________________^
*** ERROR #A9 IN 759 (Src\JC.asm, LINE 759): SYNTAX ERROR
0AF7 F520            760               MOV   PA0,A
*** _________________________________________^
*** WARNING #A52 IN 760 (Src\JC.asm, LINE 760): VALUE HAS BEEN TRUNCATED TO 8 BITS
                     761               BR    !POSTPMB                
*** ___________________________________^
*** _________________________________________^
*** ERROR #A9 IN 761 (Src\JC.asm, LINE 761): SYNTAX ERROR
*** ERROR #A3 IN 761 (Src\JC.asm, LINE 761): ILLEGAL CHARACTER
0AF9                 762     POSTPM6:
0AF9 E560            763               MOV   A,MAXVP
*** ___________________________________________^
*** WARNING #A52 IN 763 (Src\JC.asm, LINE 763): VALUE HAS BEEN TRUNCATED TO 8 BITS
                     764               CLR1  CY
*** ___________________________________^
*** ERROR #A9 IN 764 (Src\JC.asm, LINE 764): SYNTAX ERROR
                     765               RORC  A,1
*** ___________________________________^
*** ERROR #A9 IN 765 (Src\JC.asm, LINE 765): SYNTAX ERROR
0AFB F520            766               MOV   PA0,A
*** _________________________________________^
*** WARNING #A52 IN 766 (Src\JC.asm, LINE 766): VALUE HAS BEEN TRUNCATED TO 8 BITS
0AFD                 767     POSTPMA:
0AFD 1560            768                   DEC MAXVP
*** ___________________________________________^
*** WARNING #A52 IN 768 (Src\JC.asm, LINE 768): VALUE HAS BEEN TRUNCATED TO 8 BITS
0AFF                 769     POSTPMB:
0AFF E520            770                   MOV       A,PA0
*** ___________________________________________________^
*** WARNING #A52 IN 770 (Src\JC.asm, LINE 770): VALUE HAS BEEN TRUNCATED TO 8 BITS
0B01                 771                   XCH       A,X
*** ___________________________________________________^
*** ERROR #A45 IN 771 (Src\JC.asm, LINE 771): UNDEFINED SYMBOL (PASS-2)
0B03 7400            772                   MOV       A,#0
                     773                   ADDW      AX,#BPDATAP          
*** _______________________________________^
*** ERROR #A9 IN 773 (Src\JC.asm, LINE 773): SYNTAX ERROR
                     774               MOVW  HL,AX
*** ___________________________________^
A51 MACRO ASSEMBLER  JC                                                                   12/18/2017 16:56:46 PAGE    26

*** ERROR #A9 IN 774 (Src\JC.asm, LINE 774): SYNTAX ERROR
0B05                 775               MOV   A,[HL+1]
*** ___________________________________________^
*** ____________________________________________^
*** ________________________________________________^
*** ERROR #A9 IN 775 (Src\JC.asm, LINE 775): SYNTAX ERROR
*** ERROR #A9 IN 775 (Src\JC.asm, LINE 775): SYNTAX ERROR
*** ERROR #A9 IN 775 (Src\JC.asm, LINE 775): SYNTAX ERROR
0B05                 776               MOV   [HL],A
*** _________________________________________^
*** __________________________________________^
*** ____________________________________________^
*** ERROR #A9 IN 776 (Src\JC.asm, LINE 776): SYNTAX ERROR
*** ERROR #A9 IN 776 (Src\JC.asm, LINE 776): SYNTAX ERROR
*** ERROR #A9 IN 776 (Src\JC.asm, LINE 776): SYNTAX ERROR
                     777               MOVW  AX,HL
*** ___________________________________^
*** ERROR #A9 IN 777 (Src\JC.asm, LINE 777): SYNTAX ERROR
                     778               SUBW  AX,#BPDATAP
*** ___________________________________^
*** ERROR #A9 IN 778 (Src\JC.asm, LINE 778): SYNTAX ERROR
                     779               ADDW  AX,#BPDATAV
*** ___________________________________^
*** ERROR #A9 IN 779 (Src\JC.asm, LINE 779): SYNTAX ERROR
                     780               MOVW  HL,AX
*** ___________________________________^
*** ERROR #A9 IN 780 (Src\JC.asm, LINE 780): SYNTAX ERROR
0B05                 781               MOV   A,[HL+1]
*** ___________________________________________^
*** ____________________________________________^
*** ________________________________________________^
*** ERROR #A9 IN 781 (Src\JC.asm, LINE 781): SYNTAX ERROR
*** ERROR #A9 IN 781 (Src\JC.asm, LINE 781): SYNTAX ERROR
*** ERROR #A9 IN 781 (Src\JC.asm, LINE 781): SYNTAX ERROR
0B05                 782               MOV   [HL],A
*** _________________________________________^
*** __________________________________________^
*** ____________________________________________^
*** ERROR #A9 IN 782 (Src\JC.asm, LINE 782): SYNTAX ERROR
*** ERROR #A9 IN 782 (Src\JC.asm, LINE 782): SYNTAX ERROR
*** ERROR #A9 IN 782 (Src\JC.asm, LINE 782): SYNTAX ERROR
0B05 0520            783               INC   PA0
*** _________________________________________^
*** WARNING #A52 IN 783 (Src\JC.asm, LINE 783): VALUE HAS BEEN TRUNCATED TO 8 BITS
0B07 E520            784               MOV   A,PA0
*** ___________________________________________^
*** WARNING #A52 IN 784 (Src\JC.asm, LINE 784): VALUE HAS BEEN TRUNCATED TO 8 BITS
                     785               CMP   A,#BPLEN
*** ___________________________________^
*** ERROR #A9 IN 785 (Src\JC.asm, LINE 785): SYNTAX ERROR
                     786               BC    $POSTPMB
*** ___________________________________^
*** ERROR #A9 IN 786 (Src\JC.asm, LINE 786): SYNTAX ERROR
0B09 1547            787               DEC   BPPTR                   
*** _________________________________________^
*** WARNING #A52 IN 787 (Src\JC.asm, LINE 787): VALUE HAS BEEN TRUNCATED TO 8 BITS
0B0B                 788     POSTPMC:
0B0B                 789                   CALL  !OPTRINC                    
*** _____________________________________________^
*** ______________________________________________^
*** ERROR #A9 IN 789 (Src\JC.asm, LINE 789): SYNTAX ERROR
*** ERROR #A9 IN 789 (Src\JC.asm, LINE 789): SYNTAX ERROR
                     790               BR    !JCL                    
*** ___________________________________^
*** _________________________________________^
*** ERROR #A9 IN 790 (Src\JC.asm, LINE 790): SYNTAX ERROR
A51 MACRO ASSEMBLER  JC                                                                   12/18/2017 16:56:46 PAGE    27

*** ERROR #A3 IN 790 (Src\JC.asm, LINE 790): ILLEGAL CHARACTER
                     791     ;*=======检测?程结束==============
0B0B                 792     DEND:      
                     793                ;CLR1        EMV
                     794               ;CALL  !TRASDATC
                     795     ;*-------计算收缩压---------------
0B0B                 796     CALA:
0B0B                 797                   CALL      !LDMAXV
*** _________________________________________________^
*** __________________________________________________^
*** ERROR #A9 IN 797 (Src\JC.asm, LINE 797): SYNTAX ERROR
*** ERROR #A9 IN 797 (Src\JC.asm, LINE 797): SYNTAX ERROR
                     798                   CLR1      CY                              
*** _______________________________________^
*** ERROR #A9 IN 798 (Src\JC.asm, LINE 798): SYNTAX ERROR
                     799               RORC  A,1
*** ___________________________________^
*** ERROR #A9 IN 799 (Src\JC.asm, LINE 799): SYNTAX ERROR
0B0B 3400            800               ADDC  A,#0
0B0D F520            801               MOV   PA0,A                   
*** _________________________________________^
*** WARNING #A52 IN 801 (Src\JC.asm, LINE 801): VALUE HAS BEEN TRUNCATED TO 8 BITS
0B0F                 802               CALL  !CALSYS                 
*** _________________________________________^
*** __________________________________________^
*** ERROR #A9 IN 802 (Src\JC.asm, LINE 802): SYNTAX ERROR
*** ERROR #A9 IN 802 (Src\JC.asm, LINE 802): SYNTAX ERROR
0B0F E563            803               MOV   A,SYSL
*** ___________________________________________^
*** WARNING #A52 IN 803 (Src\JC.asm, LINE 803): VALUE HAS BEEN TRUNCATED TO 8 BITS
0B11 756232          804               MOV   RATIOTMP,#32H           
*** _________________________________________^
*** WARNING #A52 IN 804 (Src\JC.asm, LINE 804): VALUE HAS BEEN TRUNCATED TO 8 BITS
                     805     ;---------------------modify_19_03-------------------------
                     806               ;BR    !CALA4                  ;不进行系实髡
                     807     ;---------------------modify_19_03-------------------------
0B14                 808     CALA01YT:  
                     809               CMP   SYSL,#0AAH
*** ___________________________________^
*** ERROR #A9 IN 809 (Src\JC.asm, LINE 809): SYNTAX ERROR
                     810               BC    $CALA2                  
*** ___________________________________^
*** ERROR #A9 IN 810 (Src\JC.asm, LINE 810): SYNTAX ERROR
0B14                 811     CALA1:     
0B14                 812               CALL  !LDMAXV
*** _________________________________________^
*** __________________________________________^
*** ERROR #A9 IN 812 (Src\JC.asm, LINE 812): SYNTAX ERROR
*** ERROR #A9 IN 812 (Src\JC.asm, LINE 812): SYNTAX ERROR
                     813               CMP   A,#75H
*** ___________________________________^
*** ERROR #A9 IN 813 (Src\JC.asm, LINE 813): SYNTAX ERROR
                     814               BNC   $CALDIA                 
*** ___________________________________^
*** ERROR #A9 IN 814 (Src\JC.asm, LINE 814): SYNTAX ERROR
0B14                 815               MOV   X,#36H                  
*** _________________________________________^
*** ERROR #A45 IN 815 (Src\JC.asm, LINE 815): UNDEFINED SYMBOL (PASS-2)
                     816               CMP   A,#3CH
*** ___________________________________^
*** ERROR #A9 IN 816 (Src\JC.asm, LINE 816): SYNTAX ERROR
                     817               BNC   $CALA7                  
*** ___________________________________^
*** ERROR #A9 IN 817 (Src\JC.asm, LINE 817): SYNTAX ERROR
0B17                 818               MOV   X,#2CH                  
*** _________________________________________^
A51 MACRO ASSEMBLER  JC                                                                   12/18/2017 16:56:46 PAGE    28

*** ERROR #A45 IN 818 (Src\JC.asm, LINE 818): UNDEFINED SYMBOL (PASS-2)
                     819               BR    $CALA7                  
*** ___________________________________^
*** ERROR #A9 IN 819 (Src\JC.asm, LINE 819): SYNTAX ERROR
0B1A                 820     CALA2:
                     821               CMP   A,#6EH
*** ___________________________________^
*** ERROR #A9 IN 821 (Src\JC.asm, LINE 821): SYNTAX ERROR
                     822               BC    $CALA3
*** ___________________________________^
*** ERROR #A9 IN 822 (Src\JC.asm, LINE 822): SYNTAX ERROR
0B1A                 823     CALA21:    
0B1A                 824               CALL  !LDMAXV
*** _________________________________________^
*** __________________________________________^
*** ERROR #A9 IN 824 (Src\JC.asm, LINE 824): SYNTAX ERROR
*** ERROR #A9 IN 824 (Src\JC.asm, LINE 824): SYNTAX ERROR
                     825               CMP   A,#2DH
*** ___________________________________^
*** ERROR #A9 IN 825 (Src\JC.asm, LINE 825): SYNTAX ERROR
                     826               BNC   $CALDIA                 
*** ___________________________________^
*** ERROR #A9 IN 826 (Src\JC.asm, LINE 826): SYNTAX ERROR
0B1A                 827               MOV   X,#3AH                  
*** _________________________________________^
*** ERROR #A45 IN 827 (Src\JC.asm, LINE 827): UNDEFINED SYMBOL (PASS-2)
                     828               CMP   A,#25H
*** ___________________________________^
*** ERROR #A9 IN 828 (Src\JC.asm, LINE 828): SYNTAX ERROR
                     829               BNC   $CALA7
*** ___________________________________^
*** ERROR #A9 IN 829 (Src\JC.asm, LINE 829): SYNTAX ERROR
0B1D                 830               MOV   X,#2FH                  
*** _________________________________________^
*** ERROR #A45 IN 830 (Src\JC.asm, LINE 830): UNDEFINED SYMBOL (PASS-2)
                     831               BR    !CALA7                  
*** ___________________________________^
*** _________________________________________^
*** ERROR #A9 IN 831 (Src\JC.asm, LINE 831): SYNTAX ERROR
*** ERROR #A3 IN 831 (Src\JC.asm, LINE 831): ILLEGAL CHARACTER
                     832                                                             
0B20                 833     CALA3:                                                          
                     834               CMP   A,#3CH
*** ___________________________________^
*** ERROR #A9 IN 834 (Src\JC.asm, LINE 834): SYNTAX ERROR
                     835               BC    $CALA4
*** ___________________________________^
*** ERROR #A9 IN 835 (Src\JC.asm, LINE 835): SYNTAX ERROR
0B20                 836               CALL  !LDMAXV
*** _________________________________________^
*** __________________________________________^
*** ERROR #A9 IN 836 (Src\JC.asm, LINE 836): SYNTAX ERROR
*** ERROR #A9 IN 836 (Src\JC.asm, LINE 836): SYNTAX ERROR
                     837               CMP   A,#2CH
*** ___________________________________^
*** ERROR #A9 IN 837 (Src\JC.asm, LINE 837): SYNTAX ERROR
                     838               BNC   $CALDIA                 
*** ___________________________________^
*** ERROR #A9 IN 838 (Src\JC.asm, LINE 838): SYNTAX ERROR
0B20                 839               MOV   X,#3BH                  
*** _________________________________________^
*** ERROR #A45 IN 839 (Src\JC.asm, LINE 839): UNDEFINED SYMBOL (PASS-2)
                     840               BR    !CALA7          
*** ___________________________________^
*** _________________________________________^
*** ERROR #A9 IN 840 (Src\JC.asm, LINE 840): SYNTAX ERROR
A51 MACRO ASSEMBLER  JC                                                                   12/18/2017 16:56:46 PAGE    29

*** ERROR #A3 IN 840 (Src\JC.asm, LINE 840): ILLEGAL CHARACTER
                     841     ;---------------------modify_27_02-------------------------
0B23                 842     CALA4:
                     843               CMP   A,#0
*** ___________________________________^
*** ERROR #A9 IN 843 (Src\JC.asm, LINE 843): SYNTAX ERROR
                     844               BNZ   $CALDIA                 
*** ___________________________________^
*** ERROR #A9 IN 844 (Src\JC.asm, LINE 844): SYNTAX ERROR
0B23                 845     CALA5:
                     846                   BR        !TZH        ;//出错
*** _______________________________________^
*** _________________________________________________^
*** ERROR #A9 IN 846 (Src\JC.asm, LINE 846): SYNTAX ERROR
*** ERROR #A3 IN 846 (Src\JC.asm, LINE 846): ILLEGAL CHARACTER
                     847                                                                     
0B23                 848     CALA7:
0B23                 849                   MOV       A,X
*** ___________________________________________________^
*** ERROR #A45 IN 849 (Src\JC.asm, LINE 849): UNDEFINED SYMBOL (PASS-2)
0B25 F562            850                   MOV       RATIOTMP,A              
*** _________________________________________________^
*** WARNING #A52 IN 850 (Src\JC.asm, LINE 850): VALUE HAS BEEN TRUNCATED TO 8 BITS
0B27                 851               CALL  !LDMAXV    
*** _________________________________________^
*** __________________________________________^
*** ERROR #A9 IN 851 (Src\JC.asm, LINE 851): SYNTAX ERROR
*** ERROR #A9 IN 851 (Src\JC.asm, LINE 851): SYNTAX ERROR
0B27                 852               MOV   X,A      
*** _________________________________________^
*** ERROR #A45 IN 852 (Src\JC.asm, LINE 852): UNDEFINED SYMBOL (PASS-2)
0B29 E562            853               MOV   A,RATIOTMP
*** ___________________________________________^
*** WARNING #A52 IN 853 (Src\JC.asm, LINE 853): VALUE HAS BEEN TRUNCATED TO 8 BITS
0B2B                 854               CALL  !PERCENT
*** _________________________________________^
*** __________________________________________^
*** ERROR #A9 IN 854 (Src\JC.asm, LINE 854): SYNTAX ERROR
*** ERROR #A9 IN 854 (Src\JC.asm, LINE 854): SYNTAX ERROR
0B2B F520            855               MOV   PA0,A
*** _________________________________________^
*** WARNING #A52 IN 855 (Src\JC.asm, LINE 855): VALUE HAS BEEN TRUNCATED TO 8 BITS
0B2D                 856               CALL  !CALSYS
*** _________________________________________^
*** __________________________________________^
*** ERROR #A9 IN 856 (Src\JC.asm, LINE 856): SYNTAX ERROR
*** ERROR #A9 IN 856 (Src\JC.asm, LINE 856): SYNTAX ERROR
                     857     ;*-------计算舒张压--------------
0B2D                 858     CALDIA:    
0B2D                 859                       CALL  !LDMAXV
*** _________________________________________________^
*** __________________________________________________^
*** ERROR #A9 IN 859 (Src\JC.asm, LINE 859): SYNTAX ERROR
*** ERROR #A9 IN 859 (Src\JC.asm, LINE 859): SYNTAX ERROR
0B2D                 860               MOV   X,#48H                  
*** _________________________________________^
*** ERROR #A45 IN 860 (Src\JC.asm, LINE 860): UNDEFINED SYMBOL (PASS-2)
0B30                 861               CALL  !PERCENT
*** _________________________________________^
*** __________________________________________^
*** ERROR #A9 IN 861 (Src\JC.asm, LINE 861): SYNTAX ERROR
*** ERROR #A9 IN 861 (Src\JC.asm, LINE 861): SYNTAX ERROR
0B30 F520            862               MOV   PA0,A
*** _________________________________________^
*** WARNING #A52 IN 862 (Src\JC.asm, LINE 862): VALUE HAS BEEN TRUNCATED TO 8 BITS
0B32 E560            863               MOV   A,MAXVP
A51 MACRO ASSEMBLER  JC                                                                   12/18/2017 16:56:46 PAGE    30

*** ___________________________________________^
*** WARNING #A52 IN 863 (Src\JC.asm, LINE 863): VALUE HAS BEEN TRUNCATED TO 8 BITS
0B34 FC              864               MOV   R4,A
0B35                 865     CALDIA1:   
0B35 0C              866               INC   R4
0B36 EC              867               MOV   A,R4
0B37 2402            868               ADD   A,#2
                     869               CMP   A,BPPTR
*** ___________________________________^
*** ERROR #A9 IN 869 (Src\JC.asm, LINE 869): SYNTAX ERROR
                     870               BNC   $CALDIA2                
*** ___________________________________^
*** ERROR #A9 IN 870 (Src\JC.asm, LINE 870): SYNTAX ERROR
0B39 EC              871               MOV   A,R4
0B3A                 872               XCH   A,X
*** ___________________________________________^
*** ERROR #A45 IN 872 (Src\JC.asm, LINE 872): UNDEFINED SYMBOL (PASS-2)
0B3C 7400            873               MOV   A,#0
                     874               ADDW  AX,#BPDATAV
*** ___________________________________^
*** ERROR #A9 IN 874 (Src\JC.asm, LINE 874): SYNTAX ERROR
                     875               MOVW  HL,AX
*** ___________________________________^
*** ERROR #A9 IN 875 (Src\JC.asm, LINE 875): SYNTAX ERROR
0B3E E520            876               MOV   A,PA0
*** ___________________________________________^
*** WARNING #A52 IN 876 (Src\JC.asm, LINE 876): VALUE HAS BEEN TRUNCATED TO 8 BITS
                     877               CMP   A,[HL]
*** ___________________________________^
*** ___________________________________________^
*** ______________________________________________^
*** ERROR #A9 IN 877 (Src\JC.asm, LINE 877): SYNTAX ERROR
*** ERROR #A3 IN 877 (Src\JC.asm, LINE 877): ILLEGAL CHARACTER
*** ERROR #A3 IN 877 (Src\JC.asm, LINE 877): ILLEGAL CHARACTER
                     878               BZ    $CALDIA1
*** ___________________________________^
*** ERROR #A9 IN 878 (Src\JC.asm, LINE 878): SYNTAX ERROR
                     879               BC    $CALDIA1
*** ___________________________________^
*** ERROR #A9 IN 879 (Src\JC.asm, LINE 879): SYNTAX ERROR
                     880               CMP   A,[HL+1]
*** ___________________________________^
*** ___________________________________________^
*** ________________________________________________^
*** ERROR #A9 IN 880 (Src\JC.asm, LINE 880): SYNTAX ERROR
*** ERROR #A3 IN 880 (Src\JC.asm, LINE 880): ILLEGAL CHARACTER
*** ERROR #A3 IN 880 (Src\JC.asm, LINE 880): ILLEGAL CHARACTER
                     881               BC    $CALDIA1
*** ___________________________________^
*** ERROR #A9 IN 881 (Src\JC.asm, LINE 881): SYNTAX ERROR
                     882               CMP   A,[HL+2]
*** ___________________________________^
*** ___________________________________________^
*** ________________________________________________^
*** ERROR #A9 IN 882 (Src\JC.asm, LINE 882): SYNTAX ERROR
*** ERROR #A3 IN 882 (Src\JC.asm, LINE 882): ILLEGAL CHARACTER
*** ERROR #A3 IN 882 (Src\JC.asm, LINE 882): ILLEGAL CHARACTER
                     883               BC    $CALDIA1
*** ___________________________________^
*** ERROR #A9 IN 883 (Src\JC.asm, LINE 883): SYNTAX ERROR
                     884               BR    $CALDIA4                
*** ___________________________________^
*** ERROR #A9 IN 884 (Src\JC.asm, LINE 884): SYNTAX ERROR
0B40                 885     CALDIA2:   
0B40 75F003          886                   MOV       B,#3
0B43 E547            887               MOV   A,BPPTR
A51 MACRO ASSEMBLER  JC                                                                   12/18/2017 16:56:46 PAGE    31

*** ___________________________________________^
*** WARNING #A52 IN 887 (Src\JC.asm, LINE 887): VALUE HAS BEEN TRUNCATED TO 8 BITS
0B45 FC              888               MOV   R4,A
0B46 1C              889               DEC   R4
0B47                 890     CALDIA3:
0B47 EC              891                       MOV   A,R4
0B48                 892                       XCH   A,X
*** ___________________________________________________^
*** ERROR #A45 IN 892 (Src\JC.asm, LINE 892): UNDEFINED SYMBOL (PASS-2)
0B4A 7400            893                   MOV       A,#0
                     894                   ADDW      AX,#BPDATAV
*** _______________________________________^
*** ERROR #A9 IN 894 (Src\JC.asm, LINE 894): SYNTAX ERROR
                     895                   MOVW      HL,AX
*** _______________________________________^
*** ERROR #A9 IN 895 (Src\JC.asm, LINE 895): SYNTAX ERROR
                     896                   DECW      HL
*** _______________________________________^
*** ERROR #A9 IN 896 (Src\JC.asm, LINE 896): SYNTAX ERROR
0B4C E520            897               MOV   A,PA0
*** ___________________________________________^
*** WARNING #A52 IN 897 (Src\JC.asm, LINE 897): VALUE HAS BEEN TRUNCATED TO 8 BITS
                     898               CMP   A,[HL+1]                
*** ___________________________________^
*** ___________________________________________^
*** ________________________________________________^
*** ERROR #A9 IN 898 (Src\JC.asm, LINE 898): SYNTAX ERROR
*** ERROR #A3 IN 898 (Src\JC.asm, LINE 898): ILLEGAL CHARACTER
*** ERROR #A3 IN 898 (Src\JC.asm, LINE 898): ILLEGAL CHARACTER
                     899               BC    $CALDIA31
*** ___________________________________^
*** ERROR #A9 IN 899 (Src\JC.asm, LINE 899): SYNTAX ERROR
                     900               CMP   A,[HL]
*** ___________________________________^
*** ___________________________________________^
*** ______________________________________________^
*** ERROR #A9 IN 900 (Src\JC.asm, LINE 900): SYNTAX ERROR
*** ERROR #A3 IN 900 (Src\JC.asm, LINE 900): ILLEGAL CHARACTER
*** ERROR #A3 IN 900 (Src\JC.asm, LINE 900): ILLEGAL CHARACTER
                     901               BZ    $CALDIA4
*** ___________________________________^
*** ERROR #A9 IN 901 (Src\JC.asm, LINE 901): SYNTAX ERROR
                     902     ;---------------------modify_19_04-------------------------
                     903               BC    $CALDIA4
*** ___________________________________^
*** ERROR #A9 IN 903 (Src\JC.asm, LINE 903): SYNTAX ERROR
                     904     ;---------------------modify_19_04-------------------------
0B4E                 905     CALDIA31:  
0B4E 1C              906               DEC   R4
0B4F EC              907               MOV   A,R4
                     908               CMP   A,MAXVP
*** ___________________________________^
*** ERROR #A9 IN 908 (Src\JC.asm, LINE 908): SYNTAX ERROR
                     909               BC    $CALDIA32
*** ___________________________________^
*** ERROR #A9 IN 909 (Src\JC.asm, LINE 909): SYNTAX ERROR
                     910               DBNZ  B,$CALDIA3
*** ___________________________________^
*** ERROR #A9 IN 910 (Src\JC.asm, LINE 910): SYNTAX ERROR
0B50                 911     CALDIA32:  
0B50 756400          912               MOV   DIAL,#0
*** _________________________________________^
*** WARNING #A52 IN 912 (Src\JC.asm, LINE 912): VALUE HAS BEEN TRUNCATED TO 8 BITS
                     913               BR    !CALHEART                       
*** ___________________________________^
*** _________________________________________^
A51 MACRO ASSEMBLER  JC                                                                   12/18/2017 16:56:46 PAGE    32

*** ERROR #A9 IN 913 (Src\JC.asm, LINE 913): SYNTAX ERROR
*** ERROR #A3 IN 913 (Src\JC.asm, LINE 913): ILLEGAL CHARACTER
                     914     ;---------------------modify_27_02-------------------------
0B53                 915     CALDIA4:   
0B53 1C              916               DEC   R4      
0B54                 917               CALL  !INSERT                 
*** _________________________________________^
*** __________________________________________^
*** ERROR #A9 IN 917 (Src\JC.asm, LINE 917): SYNTAX ERROR
*** ERROR #A9 IN 917 (Src\JC.asm, LINE 917): SYNTAX ERROR
0B54 E520            918               MOV   A,PA0
*** ___________________________________________^
*** WARNING #A52 IN 918 (Src\JC.asm, LINE 918): VALUE HAS BEEN TRUNCATED TO 8 BITS
0B56 F564            919               MOV   DIAL,A                  
*** _________________________________________^
*** WARNING #A52 IN 919 (Src\JC.asm, LINE 919): VALUE HAS BEEN TRUNCATED TO 8 BITS
                     920     ;*-------计算心率--------------
0B58                 921     CALHEART:  
                     922                       ;CLR1 IHB
0B58                 923               CALL  !CALHR                  
*** _________________________________________^
*** __________________________________________^
*** ERROR #A9 IN 923 (Src\JC.asm, LINE 923): SYNTAX ERROR
*** ERROR #A9 IN 923 (Src\JC.asm, LINE 923): SYNTAX ERROR
0B58 E564            924               MOV   A,DIAL                          
*** ___________________________________________^
*** WARNING #A52 IN 924 (Src\JC.asm, LINE 924): VALUE HAS BEEN TRUNCATED TO 8 BITS
0B5A F586            925               MOV   PDIA,A
*** _________________________________________^
*** WARNING #A52 IN 925 (Src\JC.asm, LINE 925): VALUE HAS BEEN TRUNCATED TO 8 BITS
0B5C E563            926               MOV   A,SYSL
*** ___________________________________________^
*** WARNING #A52 IN 926 (Src\JC.asm, LINE 926): VALUE HAS BEEN TRUNCATED TO 8 BITS
0B5E F585            927               MOV   PSYS,A
*** _________________________________________^
*** WARNING #A52 IN 927 (Src\JC.asm, LINE 927): VALUE HAS BEEN TRUNCATED TO 8 BITS
0B60 E587            928                     MOV             A,PHR
*** ___________________________________________________________^
*** WARNING #A52 IN 928 (Src\JC.asm, LINE 928): VALUE HAS BEEN TRUNCATED TO 8 BITS
0B62                 929                     XCH             A,X
*** ___________________________________________________________^
*** ERROR #A45 IN 929 (Src\JC.asm, LINE 929): UNDEFINED SYMBOL (PASS-2)
0B64 7400            930                     MOV             A,#0      
                     931                     CMPW    AX,#180
*** _________________________________________^
*** ERROR #A9 IN 931 (Src\JC.asm, LINE 931): SYNTAX ERROR
                     932                     BC      $TZH_07
*** _________________________________________^
*** ERROR #A9 IN 932 (Src\JC.asm, LINE 932): SYNTAX ERROR
0B66 7587FE          933                     MOV     PHR,#0FEH
*** _________________________________________________^
*** WARNING #A52 IN 933 (Src\JC.asm, LINE 933): VALUE HAS BEEN TRUNCATED TO 8 BITS
                     934                     CLR1    HRERR_1
*** _________________________________________^
*** ERROR #A9 IN 934 (Src\JC.asm, LINE 934): SYNTAX ERROR
                     935                     BR          $TZH
*** _________________________________________^
*** ERROR #A9 IN 935 (Src\JC.asm, LINE 935): SYNTAX ERROR
0B69                 936     TZH_07:
                     937                     CMPW    AX,#40
*** _________________________________________^
*** ERROR #A9 IN 937 (Src\JC.asm, LINE 937): SYNTAX ERROR
                     938                     BNC      $TZH
*** _________________________________________^
*** ERROR #A9 IN 938 (Src\JC.asm, LINE 938): SYNTAX ERROR
                     939                     CLR1    HRERR_1
A51 MACRO ASSEMBLER  JC                                                                   12/18/2017 16:56:46 PAGE    33

*** _________________________________________^
*** ERROR #A9 IN 939 (Src\JC.asm, LINE 939): SYNTAX ERROR
0B69 758701          940                     MOV     PHR,#01H
*** _________________________________________________^
*** WARNING #A52 IN 940 (Src\JC.asm, LINE 940): VALUE HAS BEEN TRUNCATED TO 8 BITS
                     941     ;*      =======停止检测================
0B6C 00              942     TZH:       NOP
                     943     ;*      =======错误检查=================
                     944     ;---------------------modify_22_03-------------------------
                     945              
                     946     ;********************************************************************************
                     947     ;*子程序编号: 02
                     948     ;*作用:原始?据进?级缓冲======
                     949     ;*入口:  无
                     950     ;*出口:  PA1:PA0为当前的测量值
                     951     ;*占用变量: A,X
                     952     ;*作用:  1.将OPTR所指原始?据送至?级缓冲
                     953     ;*       2.并将?级缓冲的指针加1
0B6D                 954     TOBUF2:    
0B6D 7400            955               MOV   A,#0
0B6F                 956               CALL  !LDOPTRA
*** _________________________________________^
*** __________________________________________^
*** ERROR #A9 IN 956 (Src\JC.asm, LINE 956): SYNTAX ERROR
*** ERROR #A9 IN 956 (Src\JC.asm, LINE 956): SYNTAX ERROR
0B6F E52A            957               MOV   A,IPTR2
*** ___________________________________________^
*** WARNING #A52 IN 957 (Src\JC.asm, LINE 957): VALUE HAS BEEN TRUNCATED TO 8 BITS
0B71                 958               XCH     A,X
*** _____________________________________________^
*** ERROR #A45 IN 958 (Src\JC.asm, LINE 958): UNDEFINED SYMBOL (PASS-2)
0B73 7400            959               MOV   A,#0
                     960               ADDW  AX,#BUF2L
*** ___________________________________^
*** ERROR #A9 IN 960 (Src\JC.asm, LINE 960): SYNTAX ERROR
                     961               MOVW  HL,AX
*** ___________________________________^
*** ERROR #A9 IN 961 (Src\JC.asm, LINE 961): SYNTAX ERROR
0B75 E520            962               MOV   A,PA0
*** ___________________________________________^
*** WARNING #A52 IN 962 (Src\JC.asm, LINE 962): VALUE HAS BEEN TRUNCATED TO 8 BITS
0B77                 963               MOV   [HL],A
*** _________________________________________^
*** __________________________________________^
*** ____________________________________________^
*** ERROR #A9 IN 963 (Src\JC.asm, LINE 963): SYNTAX ERROR
*** ERROR #A9 IN 963 (Src\JC.asm, LINE 963): SYNTAX ERROR
*** ERROR #A9 IN 963 (Src\JC.asm, LINE 963): SYNTAX ERROR
0B77 E521            964               MOV   A,PA1
*** ___________________________________________^
*** WARNING #A52 IN 964 (Src\JC.asm, LINE 964): VALUE HAS BEEN TRUNCATED TO 8 BITS
0B79                 965               MOV   [HL+20H],A
*** _________________________________________^
*** __________________________________________^
*** ________________________________________________^
*** ERROR #A9 IN 965 (Src\JC.asm, LINE 965): SYNTAX ERROR
*** ERROR #A9 IN 965 (Src\JC.asm, LINE 965): SYNTAX ERROR
*** ERROR #A9 IN 965 (Src\JC.asm, LINE 965): SYNTAX ERROR
0B79 052A            966               INC   IPTR2      
*** _________________________________________^
*** WARNING #A52 IN 966 (Src\JC.asm, LINE 966): VALUE HAS BEEN TRUNCATED TO 8 BITS
                     967               AND   IPTR2,#0FH
*** ___________________________________^
*** ERROR #A9 IN 967 (Src\JC.asm, LINE 967): SYNTAX ERROR
0B7B 22              968               RET
                     969     ;************************************************************************************
A51 MACRO ASSEMBLER  JC                                                                   12/18/2017 16:56:46 PAGE    34

                     970     ;*子程序编号: 03
                     971     ;*作用:         取出BUF内的测量值=======
                     972     ;*入口:  A
                     973     ;*出口:  PA1:PA0=BUF[OPTR-A]
                     974     ;*占用寄存器:A, XLL H
                     975     ;*调用其他子程序列表:OPTRSUB
0B7C                 976     LDOPTRA:   
0B7C                 977                       CALL  !OPTRSUB
*** _________________________________________________^
*** __________________________________________________^
*** ERROR #A9 IN 977 (Src\JC.asm, LINE 977): SYNTAX ERROR
*** ERROR #A9 IN 977 (Src\JC.asm, LINE 977): SYNTAX ERROR
0B7C 7400            978               MOV   A,#0
                     979               ADDW  AX,#BUFL
*** ___________________________________^
*** ERROR #A9 IN 979 (Src\JC.asm, LINE 979): SYNTAX ERROR
                     980               MOVW  HL,AX
*** ___________________________________^
*** ERROR #A9 IN 980 (Src\JC.asm, LINE 980): SYNTAX ERROR
0B7E                 981               MOV   A,[HL]
*** ___________________________________________^
*** ____________________________________________^
*** ______________________________________________^
*** ERROR #A9 IN 981 (Src\JC.asm, LINE 981): SYNTAX ERROR
*** ERROR #A9 IN 981 (Src\JC.asm, LINE 981): SYNTAX ERROR
*** ERROR #A9 IN 981 (Src\JC.asm, LINE 981): SYNTAX ERROR
0B7E F520            982               MOV   PA0,A
*** _________________________________________^
*** WARNING #A52 IN 982 (Src\JC.asm, LINE 982): VALUE HAS BEEN TRUNCATED TO 8 BITS
0B80                 983               XCH     A,X
*** _____________________________________________^
*** ERROR #A45 IN 983 (Src\JC.asm, LINE 983): UNDEFINED SYMBOL (PASS-2)
0B82                 984               MOV   A,[HL+6]
*** ___________________________________________^
*** ____________________________________________^
*** ________________________________________________^
*** ERROR #A9 IN 984 (Src\JC.asm, LINE 984): SYNTAX ERROR
*** ERROR #A9 IN 984 (Src\JC.asm, LINE 984): SYNTAX ERROR
*** ERROR #A9 IN 984 (Src\JC.asm, LINE 984): SYNTAX ERROR
0B82 F521            985               MOV   PA1,A
*** _________________________________________^
*** WARNING #A52 IN 985 (Src\JC.asm, LINE 985): VALUE HAS BEEN TRUNCATED TO 8 BITS
0B84 22              986               RET
                     987     ;************************************************************************************
                     988                                                                     ;*子程序编号：04
                     989                                                                     ;*作用:  A=OPTR-A对BUFLEN的余?
                     990                                                                     ;*入口:  X
                     991                                                                     ;*出口:  A,X
0B85                 992                                                                     OPTRSUB:   
0B85                 993                                                                                       MOV   X,A
*** _________________________________________________________________________________________________________________^
*** ERROR #A45 IN 993 (Src\JC.asm, LINE 993): UNDEFINED SYMBOL (PASS-2)
0B87 E529            994                                                                                       MOV   A,OPTR
*** ___________________________________________________________________________________________________________________^
*** WARNING #A52 IN 994 (Src\JC.asm, LINE 994): VALUE HAS BEEN TRUNCATED TO 8 BITS
                     995                                                                                       SUB   A,X
*** ___________________________________________________________________________________________________________^
*** ERROR #A9 IN 995 (Src\JC.asm, LINE 995): SYNTAX ERROR
                     996                                                                                       BNC   $OPTRM1
*** ___________________________________________________________________________________________________________^
*** ERROR #A9 IN 996 (Src\JC.asm, LINE 996): SYNTAX ERROR
0B89 2406            997                                                                                       ADD   A,#BUFLEN
0B8B                 998                                                                     OPTRM1:   
0B8B                 999                                                                                       MOV   X,A
*** _________________________________________________________________________________________________________________^
*** ERROR #A45 IN 999 (Src\JC.asm, LINE 999): UNDEFINED SYMBOL (PASS-2)
A51 MACRO ASSEMBLER  JC                                                                   12/18/2017 16:56:46 PAGE    35

0B8D 22             1000                                                                                       RET
                    1001     void OPTRSUB(void)
*** _________________________^
*** ERROR #A9 IN 1001 (Src\JC.asm, LINE 1001): SYNTAX ERROR
                    1002     {
*** _________________________^
*** ERROR #A9 IN 1002 (Src\JC.asm, LINE 1002): SYNTAX ERROR
                    1003             X=A;
*** _________________________________^
*** ERROR #A9 IN 1003 (Src\JC.asm, LINE 1003): SYNTAX ERROR
                    1004             A=OPTR;
*** _________________________________^
*** ERROR #A9 IN 1004 (Src\JC.asm, LINE 1004): SYNTAX ERROR
                    1005             
                    1006     }
*** _________________________^
*** ERROR #A9 IN 1006 (Src\JC.asm, LINE 1006): SYNTAX ERROR
                    1007     ;************************************************************************************
                    1008     ;*子程序编号：05
                    1009     ;*作用: OPTR自加一
                    1010     ;*入口变量:OPTR
                    1011     ;*出口变量:OPTR
                    1012     ;*占用寄存器:A, X，H
                    1013     ;*调用其他子程序列表:OPTRSUB
0B8E                1014     OPTRINC:
0B8E 7405           1015                       MOV   A,#5                  ;OPTR自加一
0B90                1016               CALL  !OPTRSUB   ;+>-
*** _________________________________________^
*** __________________________________________^
*** ERROR #A9 IN 1016 (Src\JC.asm, LINE 1016): SYNTAX ERROR
*** ERROR #A9 IN 1016 (Src\JC.asm, LINE 1016): SYNTAX ERROR
0B90 F529           1017               MOV   OPTR,A
*** _________________________________________^
*** WARNING #A52 IN 1017 (Src\JC.asm, LINE 1017): VALUE HAS BEEN TRUNCATED TO 8 BITS
0B92 22             1018               RET
                    1019     ;************************************************************************************
                    1020     ;*子程序编号：06
                    1021     ;*作用:求BUF2中?据平均值
                    1022     ;*入口:    无
                    1023     ;*出口:    PA5:PA4--平均值 *占用变量: HL,A,C,R3,R4,R5
                    1024     ;*作用:    1.求BUF2中?据的
0B93                1025     CALBUF2:
                    1026           MOVW      AX,#BUF2L
*** _______________________________^
*** ERROR #A9 IN 1026 (Src\JC.asm, LINE 1026): SYNTAX ERROR
                    1027               MOVW  HL,AX
*** ___________________________________^
*** ERROR #A9 IN 1027 (Src\JC.asm, LINE 1027): SYNTAX ERROR
0B93                1028           MOV       C,#10H;R5=0,R4=0,H=0
*** _________________________________________^
*** ERROR #A40 IN 1028 (Src\JC.asm, LINE 1028): INVALID REGISTER
                    1029           MOVW      AX,#0
*** _______________________________^
*** ERROR #A9 IN 1029 (Src\JC.asm, LINE 1029): SYNTAX ERROR
                    1030           MOVW      PA4,AX
*** _______________________________^
*** ERROR #A9 IN 1030 (Src\JC.asm, LINE 1030): SYNTAX ERROR
0B93 F526           1031           MOV       PA6,A   ;C=BUF2LEN=$10=16
*** _________________________________________^
*** WARNING #A52 IN 1031 (Src\JC.asm, LINE 1031): VALUE HAS BEEN TRUNCATED TO 8 BITS
0B95                1032     CB22:      
0B95 E524           1033               MOV   A,PA4
*** ___________________________________________^
*** WARNING #A52 IN 1033 (Src\JC.asm, LINE 1033): VALUE HAS BEEN TRUNCATED TO 8 BITS
0B97                1034               ADD   A,[HL]              ;累加
*** ___________________________________________^
A51 MACRO ASSEMBLER  JC                                                                   12/18/2017 16:56:46 PAGE    36

*** ____________________________________________^
*** ______________________________________________^
*** ERROR #A9 IN 1034 (Src\JC.asm, LINE 1034): SYNTAX ERROR
*** ERROR #A9 IN 1034 (Src\JC.asm, LINE 1034): SYNTAX ERROR
*** ERROR #A9 IN 1034 (Src\JC.asm, LINE 1034): SYNTAX ERROR
0B97 F524           1035           MOV       PA4,A
*** _________________________________________^
*** WARNING #A52 IN 1035 (Src\JC.asm, LINE 1035): VALUE HAS BEEN TRUNCATED TO 8 BITS
0B99 E525           1036               MOV   A,PA5
*** ___________________________________________^
*** WARNING #A52 IN 1036 (Src\JC.asm, LINE 1036): VALUE HAS BEEN TRUNCATED TO 8 BITS
0B9B                1037           ADDC      A,[HL+20H]
*** ___________________________________________^
*** ____________________________________________^
*** __________________________________________________^
*** ERROR #A9 IN 1037 (Src\JC.asm, LINE 1037): SYNTAX ERROR
*** ERROR #A9 IN 1037 (Src\JC.asm, LINE 1037): SYNTAX ERROR
*** ERROR #A9 IN 1037 (Src\JC.asm, LINE 1037): SYNTAX ERROR
0B9B F525           1038               MOV   PA5,A
*** _________________________________________^
*** WARNING #A52 IN 1038 (Src\JC.asm, LINE 1038): VALUE HAS BEEN TRUNCATED TO 8 BITS
0B9D E526           1039               MOV   A,PA6
*** ___________________________________________^
*** WARNING #A52 IN 1039 (Src\JC.asm, LINE 1039): VALUE HAS BEEN TRUNCATED TO 8 BITS
0B9F 3400           1040               ADDC  A,#0
0BA1 F526           1041               MOV   PA6,A
*** _________________________________________^
*** WARNING #A52 IN 1041 (Src\JC.asm, LINE 1041): VALUE HAS BEEN TRUNCATED TO 8 BITS
                    1042               INCW  HL
*** ___________________________________^
*** ERROR #A9 IN 1042 (Src\JC.asm, LINE 1042): SYNTAX ERROR
                    1043               DBNZ  C,$CB22
*** ___________________________________^
*** ERROR #A9 IN 1043 (Src\JC.asm, LINE 1043): SYNTAX ERROR
0BA3                1044           MOV       C,#4
*** _________________________________________^
*** ERROR #A40 IN 1044 (Src\JC.asm, LINE 1044): INVALID REGISTER
0BA3                1045     CB27:
0BA3 E526           1046               MOV   A,PA6
*** ___________________________________________^
*** WARNING #A52 IN 1046 (Src\JC.asm, LINE 1046): VALUE HAS BEEN TRUNCATED TO 8 BITS
                    1047               RORC  A,1
*** ___________________________________^
*** ERROR #A9 IN 1047 (Src\JC.asm, LINE 1047): SYNTAX ERROR
0BA5 F526           1048               MOV   PA6,A
*** _________________________________________^
*** WARNING #A52 IN 1048 (Src\JC.asm, LINE 1048): VALUE HAS BEEN TRUNCATED TO 8 BITS
0BA7 E525           1049               MOV   A,PA5
*** ___________________________________________^
*** WARNING #A52 IN 1049 (Src\JC.asm, LINE 1049): VALUE HAS BEEN TRUNCATED TO 8 BITS
                    1050               RORC  A,1
*** ___________________________________^
*** ERROR #A9 IN 1050 (Src\JC.asm, LINE 1050): SYNTAX ERROR
0BA9 F525           1051               MOV   PA5,A
*** _________________________________________^
*** WARNING #A52 IN 1051 (Src\JC.asm, LINE 1051): VALUE HAS BEEN TRUNCATED TO 8 BITS
0BAB E524           1052               MOV   A,PA4
*** ___________________________________________^
*** WARNING #A52 IN 1052 (Src\JC.asm, LINE 1052): VALUE HAS BEEN TRUNCATED TO 8 BITS
                    1053               RORC  A,1
*** ___________________________________^
*** ERROR #A9 IN 1053 (Src\JC.asm, LINE 1053): SYNTAX ERROR
0BAD F524           1054               MOV   PA4,A
*** _________________________________________^
*** WARNING #A52 IN 1054 (Src\JC.asm, LINE 1054): VALUE HAS BEEN TRUNCATED TO 8 BITS
                    1055               DBNZ  C,$CB27
A51 MACRO ASSEMBLER  JC                                                                   12/18/2017 16:56:46 PAGE    37

*** ___________________________________^
*** ERROR #A9 IN 1055 (Src\JC.asm, LINE 1055): SYNTAX ERROR
0BAF 22             1056               RET
                    1057     ;************************************************************************************
                    1058     ;子程序编号：07
                    1059     ;子程序名称 DM
                    1060     ;调用其他程序列表：
                    1061     ;状态:已调试
                    1062     ;
                    1063     ;*入口:  PA1:PA0--压力机内制
                    1064     ;*       PA5:PA4---#MODMMHG指转换为mmHg,#MODKPA指转换为kPa，#MODTSH指转换为调试态显示
                    1065     ;*       模式---#MODMMHG指转换为mmHg(0-300)，=80=$50
                    1066     ;*       模式---#MODKPA指转换为kPa/10(0-400),=60=$3c
                    1067     ;*       模式---#MODTSH指转换为调试态显示(0-960)，=25=$19
                    1068     ;*       实际上R7=0，是为了初始化UDIV子程序，R4=模式??
                    1069     ;*出口:  R3:R0--值，进制R7R6不变
                    1070     ;*占用变量:   A,X,R3,R2
                    1071     ;*调用其他函?列表:  UDIV
                    1072     ;*作用:  将指定类型的压力值换算为指定单位
0BB0                1073     DM1:
0BB0 752300         1074               MOV  PA3,#0
*** ________________________________________^
*** WARNING #A52 IN 1074 (Src\JC.asm, LINE 1074): VALUE HAS BEEN TRUNCATED TO 8 BITS
0BB3                1075               CALL !UDIV
*** ________________________________________^
*** _________________________________________^
*** ERROR #A9 IN 1075 (Src\JC.asm, LINE 1075): SYNTAX ERROR
*** ERROR #A9 IN 1075 (Src\JC.asm, LINE 1075): SYNTAX ERROR
                    1076               BR   !DC
*** ___________________________________^
*** ________________________________________^
*** ERROR #A9 IN 1076 (Src\JC.asm, LINE 1076): SYNTAX ERROR
*** ERROR #A3 IN 1076 (Src\JC.asm, LINE 1076): ILLEGAL CHARACTER
0BB3                1077     DM:
0BB3 752500         1078               MOV   PA5,#0
*** _________________________________________^
*** WARNING #A52 IN 1078 (Src\JC.asm, LINE 1078): VALUE HAS BEEN TRUNCATED TO 8 BITS
0BB6 752300         1079               MOV   PA3,#0
*** _________________________________________^
*** WARNING #A52 IN 1079 (Src\JC.asm, LINE 1079): VALUE HAS BEEN TRUNCATED TO 8 BITS
0BB9 752200         1080               MOV   PA2,#0
*** _________________________________________^
*** WARNING #A52 IN 1080 (Src\JC.asm, LINE 1080): VALUE HAS BEEN TRUNCATED TO 8 BITS
0BBC                1081               CALL  !UDIV
*** _________________________________________^
*** __________________________________________^
*** ERROR #A9 IN 1081 (Src\JC.asm, LINE 1081): SYNTAX ERROR
*** ERROR #A9 IN 1081 (Src\JC.asm, LINE 1081): SYNTAX ERROR
                    1082     ;下接DC子程序，即DM包含DC
                    1083     ;*=======?字转换为显示码=======
                    1084     ;*入口:  
                    1085     ;*出口:  PA5--千位
                    1086     ;                PA4--百位
                    1087     ;*       PA3--十位
                    1088     ;*       PA2--个位
                    1089     ;*占用变量: A,X
                    1090     ;*调用其他函?列表:no
                    1091     ;*作用:  将?进制?转换为显示码
                    1092     ;*$3E8=1000; $64=100; $A=10
0BBC                1093     DC:
0BBC E520           1094               MOV   A,PA0
*** ___________________________________________^
*** WARNING #A52 IN 1094 (Src\JC.asm, LINE 1094): VALUE HAS BEEN TRUNCATED TO 8 BITS
0BBE                1095               MOV   X,A
*** _________________________________________^
*** ERROR #A45 IN 1095 (Src\JC.asm, LINE 1095): UNDEFINED SYMBOL (PASS-2)
A51 MACRO ASSEMBLER  JC                                                                   12/18/2017 16:56:46 PAGE    38

0BC0 E521           1096               MOV   A,PA1
*** ___________________________________________^
*** WARNING #A52 IN 1096 (Src\JC.asm, LINE 1096): VALUE HAS BEEN TRUNCATED TO 8 BITS
                    1097               CMPW  AX,#2710H
*** ___________________________________^
*** ERROR #A9 IN 1097 (Src\JC.asm, LINE 1097): SYNTAX ERROR
                    1098               BC    $DCA
*** ___________________________________^
*** ERROR #A9 IN 1098 (Src\JC.asm, LINE 1098): SYNTAX ERROR
                    1099               BR    $DC6
*** ___________________________________^
*** ERROR #A9 IN 1099 (Src\JC.asm, LINE 1099): SYNTAX ERROR
0BC2                1100     DCA:      
0BC2 752200         1101               MOV   PA2,#0
*** _________________________________________^
*** WARNING #A52 IN 1101 (Src\JC.asm, LINE 1101): VALUE HAS BEEN TRUNCATED TO 8 BITS
0BC5 752300         1102               MOV   PA3,#0
*** _________________________________________^
*** WARNING #A52 IN 1102 (Src\JC.asm, LINE 1102): VALUE HAS BEEN TRUNCATED TO 8 BITS
0BC8 752400         1103               MOV   PA4,#0
*** _________________________________________^
*** WARNING #A52 IN 1103 (Src\JC.asm, LINE 1103): VALUE HAS BEEN TRUNCATED TO 8 BITS
0BCB 752500         1104               MOV   PA5,#0;转入未超界处理
*** _________________________________________^
*** WARNING #A52 IN 1104 (Src\JC.asm, LINE 1104): VALUE HAS BEEN TRUNCATED TO 8 BITS
0BCE                1105     DC1:      
0BCE 0525           1106               INC   PA5
*** _________________________________________^
*** WARNING #A52 IN 1106 (Src\JC.asm, LINE 1106): VALUE HAS BEEN TRUNCATED TO 8 BITS
                    1107               SUBW  AX,#3E8H
*** ___________________________________^
*** ERROR #A9 IN 1107 (Src\JC.asm, LINE 1107): SYNTAX ERROR
                    1108               BNC   $DC1
*** ___________________________________^
*** ERROR #A9 IN 1108 (Src\JC.asm, LINE 1108): SYNTAX ERROR
                    1109               ADDW  AX,#3E8H
*** ___________________________________^
*** ERROR #A9 IN 1109 (Src\JC.asm, LINE 1109): SYNTAX ERROR
0BD0 1525           1110               DEC   PA5
*** _________________________________________^
*** WARNING #A52 IN 1110 (Src\JC.asm, LINE 1110): VALUE HAS BEEN TRUNCATED TO 8 BITS
0BD2                1111     DC2:              
0BD2 0524           1112                       INC   PA4
*** _________________________________________________^
*** WARNING #A52 IN 1112 (Src\JC.asm, LINE 1112): VALUE HAS BEEN TRUNCATED TO 8 BITS
                    1113                       SUBW  AX,#64H
*** ___________________________________________^
*** ERROR #A9 IN 1113 (Src\JC.asm, LINE 1113): SYNTAX ERROR
                    1114                       BNC   $DC2
*** ___________________________________________^
*** ERROR #A9 IN 1114 (Src\JC.asm, LINE 1114): SYNTAX ERROR
                    1115                       ADDW  AX,#64H
*** ___________________________________________^
*** ERROR #A9 IN 1115 (Src\JC.asm, LINE 1115): SYNTAX ERROR
0BD4 1524           1116                       DEC   PA4
*** _________________________________________________^
*** WARNING #A52 IN 1116 (Src\JC.asm, LINE 1116): VALUE HAS BEEN TRUNCATED TO 8 BITS
0BD6                1117     DC3:      
0BD6 0523           1118                       INC   PA3
*** _________________________________________________^
*** WARNING #A52 IN 1118 (Src\JC.asm, LINE 1118): VALUE HAS BEEN TRUNCATED TO 8 BITS
                    1119                       SUBW  AX,#0AH
*** ___________________________________________^
*** ERROR #A9 IN 1119 (Src\JC.asm, LINE 1119): SYNTAX ERROR
                    1120                       BNC   $DC3
*** ___________________________________________^
A51 MACRO ASSEMBLER  JC                                                                   12/18/2017 16:56:46 PAGE    39

*** ERROR #A9 IN 1120 (Src\JC.asm, LINE 1120): SYNTAX ERROR
                    1121                       ADDW  AX,#0AH
*** ___________________________________________^
*** ERROR #A9 IN 1121 (Src\JC.asm, LINE 1121): SYNTAX ERROR
0BD8 1523           1122                       DEC   PA3
*** _________________________________________________^
*** WARNING #A52 IN 1122 (Src\JC.asm, LINE 1122): VALUE HAS BEEN TRUNCATED TO 8 BITS
0BDA                1123                       XCH   A,X
*** ___________________________________________________^
*** ERROR #A45 IN 1123 (Src\JC.asm, LINE 1123): UNDEFINED SYMBOL (PASS-2)
0BDC F522           1124                       MOV   PA2,A
*** _________________________________________________^
*** WARNING #A52 IN 1124 (Src\JC.asm, LINE 1124): VALUE HAS BEEN TRUNCATED TO 8 BITS
0BDE                1125     DC6:          
0BDE 22             1126               RET
0BDF                1127     BCDB:
0BDF E522           1128               MOV   A,PA2
*** ___________________________________________^
*** WARNING #A52 IN 1128 (Src\JC.asm, LINE 1128): VALUE HAS BEEN TRUNCATED TO 8 BITS
                    1129               AND   A,#0F0H
*** ___________________________________^
*** ERROR #A9 IN 1129 (Src\JC.asm, LINE 1129): SYNTAX ERROR
                    1130               ROR   A,1
*** ___________________________________^
*** ERROR #A9 IN 1130 (Src\JC.asm, LINE 1130): SYNTAX ERROR
                    1131               ROR   A,1
*** ___________________________________^
*** ERROR #A9 IN 1131 (Src\JC.asm, LINE 1131): SYNTAX ERROR
                    1132               ROR   A,1
*** ___________________________________^
*** ERROR #A9 IN 1132 (Src\JC.asm, LINE 1132): SYNTAX ERROR
                    1133               ROR   A,1
*** ___________________________________^
*** ERROR #A9 IN 1133 (Src\JC.asm, LINE 1133): SYNTAX ERROR
0BE1                1134               MOV   X,#10
*** _________________________________________^
*** ERROR #A45 IN 1134 (Src\JC.asm, LINE 1134): UNDEFINED SYMBOL (PASS-2)
                    1135               MULU  X
*** ___________________________________^
*** ERROR #A9 IN 1135 (Src\JC.asm, LINE 1135): SYNTAX ERROR
0BE4                1136               XCH   A,X
*** ___________________________________________^
*** ERROR #A45 IN 1136 (Src\JC.asm, LINE 1136): UNDEFINED SYMBOL (PASS-2)
                    1137               AND   PA2,#0FH
*** ___________________________________^
*** ERROR #A9 IN 1137 (Src\JC.asm, LINE 1137): SYNTAX ERROR
0BE6 2522           1138               ADD   A,PA2
*** ___________________________________________^
*** WARNING #A52 IN 1138 (Src\JC.asm, LINE 1138): VALUE HAS BEEN TRUNCATED TO 8 BITS
0BE8 22             1139               RET
                    1140     ;************************************************************************************
                    1141     ;子程序编号：08
                    1142     ;子程序名称: UDIV
                    1143     ;功能: 四字节?双字节 PA1:PA0=PA3:PA2:PA1:PA0/PA5:PA4
                    1144     ;入口变量:PA0、PA1、PA2、PA3、PA4、PA5
                    1145     ;出口变量:PA1PA0  商 PA3PA2 余?
                    1146     ;占用寄存器:A,C
                    1147     ;调用其他程序列表：
                    1148     ;状态:已调试,未完全调试。
                    1149     ;其他:
0BE9                1150     UDIV:    
                    1151     ;---------------------modify_16_02-------------------------
0BE9                1152             PUSH    AX  
*** _________________________________________^
*** ERROR #A45 IN 1152 (Src\JC.asm, LINE 1152): UNDEFINED SYMBOL (PASS-2)
0BEB                1153             PUSH    HL
A51 MACRO ASSEMBLER  JC                                                                   12/18/2017 16:56:46 PAGE    40

*** _________________________________________^
*** ERROR #A45 IN 1153 (Src\JC.asm, LINE 1153): UNDEFINED SYMBOL (PASS-2)
0BED E522           1154             MOV     A,PA2
*** ___________________________________________^
*** WARNING #A52 IN 1154 (Src\JC.asm, LINE 1154): VALUE HAS BEEN TRUNCATED TO 8 BITS
                    1155             SUB     A,PA4
*** _________________________________^
*** ERROR #A9 IN 1155 (Src\JC.asm, LINE 1155): SYNTAX ERROR
0BEF E523           1156             MOV     A,PA3
*** ___________________________________________^
*** WARNING #A52 IN 1156 (Src\JC.asm, LINE 1156): VALUE HAS BEEN TRUNCATED TO 8 BITS
                    1157             SUBC    A,PA5
*** _________________________________^
*** ERROR #A9 IN 1157 (Src\JC.asm, LINE 1157): SYNTAX ERROR
                    1158             BC      $UDIV1
*** _________________________________^
*** ERROR #A9 IN 1158 (Src\JC.asm, LINE 1158): SYNTAX ERROR
                    1159             BZ      $UDIV1
*** _________________________________^
*** ERROR #A9 IN 1159 (Src\JC.asm, LINE 1159): SYNTAX ERROR
                    1160             SET1    CY
*** _________________________________^
*** ERROR #A9 IN 1160 (Src\JC.asm, LINE 1160): SYNTAX ERROR
0BF1                1161             POP     HL
*** _________________________________________^
*** ERROR #A45 IN 1161 (Src\JC.asm, LINE 1161): UNDEFINED SYMBOL (PASS-2)
0BF3                1162             POP     AX              
*** _________________________________________^
*** ERROR #A45 IN 1162 (Src\JC.asm, LINE 1162): UNDEFINED SYMBOL (PASS-2)
                    1163     ;---------------------modify_16_02-------------------------
0BF5 22             1164             RET
0BF6                1165     UDIV1:   
0BF6                1166             MOV             C,#10H
*** _________________________________________________^
*** ERROR #A40 IN 1166 (Src\JC.asm, LINE 1166): INVALID REGISTER
0BF6                1167     UDIV2:
                    1168             CLR1    CY
*** _________________________________^
*** ERROR #A9 IN 1168 (Src\JC.asm, LINE 1168): SYNTAX ERROR
0BF6 E520           1169             MOV     A,PA0   
*** ___________________________________________^
*** WARNING #A52 IN 1169 (Src\JC.asm, LINE 1169): VALUE HAS BEEN TRUNCATED TO 8 BITS
                    1170             ROLC    A,1
*** _________________________________^
*** ERROR #A9 IN 1170 (Src\JC.asm, LINE 1170): SYNTAX ERROR
0BF8 F520           1171             MOV     PA0,A
*** _________________________________________^
*** WARNING #A52 IN 1171 (Src\JC.asm, LINE 1171): VALUE HAS BEEN TRUNCATED TO 8 BITS
0BFA E521           1172             MOV     A,PA1
*** ___________________________________________^
*** WARNING #A52 IN 1172 (Src\JC.asm, LINE 1172): VALUE HAS BEEN TRUNCATED TO 8 BITS
                    1173             ROLC    A,1
*** _________________________________^
*** ERROR #A9 IN 1173 (Src\JC.asm, LINE 1173): SYNTAX ERROR
0BFC F521           1174             MOV     PA1,A
*** _________________________________________^
*** WARNING #A52 IN 1174 (Src\JC.asm, LINE 1174): VALUE HAS BEEN TRUNCATED TO 8 BITS
0BFE E522           1175             MOV     A,PA2
*** ___________________________________________^
*** WARNING #A52 IN 1175 (Src\JC.asm, LINE 1175): VALUE HAS BEEN TRUNCATED TO 8 BITS
                    1176             ROLC    A,1
*** _________________________________^
*** ERROR #A9 IN 1176 (Src\JC.asm, LINE 1176): SYNTAX ERROR
0C00 F522           1177             MOV     PA2,A
*** _________________________________________^
*** WARNING #A52 IN 1177 (Src\JC.asm, LINE 1177): VALUE HAS BEEN TRUNCATED TO 8 BITS
A51 MACRO ASSEMBLER  JC                                                                   12/18/2017 16:56:46 PAGE    41

0C02 E523           1178             MOV     A,PA3
*** ___________________________________________^
*** WARNING #A52 IN 1178 (Src\JC.asm, LINE 1178): VALUE HAS BEEN TRUNCATED TO 8 BITS
                    1179             ROLC    A,1
*** _________________________________^
*** ERROR #A9 IN 1179 (Src\JC.asm, LINE 1179): SYNTAX ERROR
0C04 F523           1180             MOV     PA3,A
*** _________________________________________^
*** WARNING #A52 IN 1180 (Src\JC.asm, LINE 1180): VALUE HAS BEEN TRUNCATED TO 8 BITS
                    1181             BC      $UDIV3
*** _________________________________^
*** ERROR #A9 IN 1181 (Src\JC.asm, LINE 1181): SYNTAX ERROR
0C06 E522           1182             MOV     A,PA2
*** ___________________________________________^
*** WARNING #A52 IN 1182 (Src\JC.asm, LINE 1182): VALUE HAS BEEN TRUNCATED TO 8 BITS
                    1183             SUB     A,PA4
*** _________________________________^
*** ERROR #A9 IN 1183 (Src\JC.asm, LINE 1183): SYNTAX ERROR
0C08 E523           1184             MOV     A,PA3
*** ___________________________________________^
*** WARNING #A52 IN 1184 (Src\JC.asm, LINE 1184): VALUE HAS BEEN TRUNCATED TO 8 BITS
                    1185             SUBC    A,PA5
*** _________________________________^
*** ERROR #A9 IN 1185 (Src\JC.asm, LINE 1185): SYNTAX ERROR
                    1186             BC      $UDIV4
*** _________________________________^
*** ERROR #A9 IN 1186 (Src\JC.asm, LINE 1186): SYNTAX ERROR
0C0A                1187     UDIV3:   
0C0A E522           1188             MOV     A,PA2
*** ___________________________________________^
*** WARNING #A52 IN 1188 (Src\JC.asm, LINE 1188): VALUE HAS BEEN TRUNCATED TO 8 BITS
                    1189             SUB     A,PA4
*** _________________________________^
*** ERROR #A9 IN 1189 (Src\JC.asm, LINE 1189): SYNTAX ERROR
0C0C F522           1190             MOV     PA2,A
*** _________________________________________^
*** WARNING #A52 IN 1190 (Src\JC.asm, LINE 1190): VALUE HAS BEEN TRUNCATED TO 8 BITS
0C0E E523           1191             MOV     A,PA3
*** ___________________________________________^
*** WARNING #A52 IN 1191 (Src\JC.asm, LINE 1191): VALUE HAS BEEN TRUNCATED TO 8 BITS
                    1192             SUBC    A,PA5
*** _________________________________^
*** ERROR #A9 IN 1192 (Src\JC.asm, LINE 1192): SYNTAX ERROR
0C10 F523           1193             MOV     PA3,A
*** _________________________________________^
*** WARNING #A52 IN 1193 (Src\JC.asm, LINE 1193): VALUE HAS BEEN TRUNCATED TO 8 BITS
0C12 0520           1194             INC     PA0
*** _________________________________________^
*** WARNING #A52 IN 1194 (Src\JC.asm, LINE 1194): VALUE HAS BEEN TRUNCATED TO 8 BITS
0C14                1195     UDIV4:
                    1196             DBNZ    C,$UDIV2
*** _________________________________^
*** ERROR #A9 IN 1196 (Src\JC.asm, LINE 1196): SYNTAX ERROR
0C14                1197     UDIV6:   
                    1198             CLR1    CY      
*** _________________________________^
*** ERROR #A9 IN 1198 (Src\JC.asm, LINE 1198): SYNTAX ERROR
                    1199     ;---------------------modify_16_03-------------------------
                    1200             MOVW    AX,PA0
*** _________________________________^
*** ERROR #A9 IN 1200 (Src\JC.asm, LINE 1200): SYNTAX ERROR
0C14                1201             PUSH    AX              
*** _________________________________________^
*** ERROR #A45 IN 1201 (Src\JC.asm, LINE 1201): UNDEFINED SYMBOL (PASS-2)
                    1202             MOVW    AX,PA4
*** _________________________________^
A51 MACRO ASSEMBLER  JC                                                                   12/18/2017 16:56:46 PAGE    42

*** ERROR #A9 IN 1202 (Src\JC.asm, LINE 1202): SYNTAX ERROR
                    1203             MOVW  HL,AX
*** _________________________________^
*** ERROR #A9 IN 1203 (Src\JC.asm, LINE 1203): SYNTAX ERROR
                    1204             MOVW            AX,PA2          ;余=PA3:PA2
*** _________________________________^
*** ERROR #A9 IN 1204 (Src\JC.asm, LINE 1204): SYNTAX ERROR
                    1205             MOVW     PA0,AX
*** _________________________________^
*** ERROR #A9 IN 1205 (Src\JC.asm, LINE 1205): SYNTAX ERROR
0C16 752202         1206             MOV      PA2,#2
*** __________________________________________^
*** WARNING #A52 IN 1206 (Src\JC.asm, LINE 1206): VALUE HAS BEEN TRUNCATED TO 8 BITS
0C19                1207             CALL    !UMUL
*** _________________________________________^
*** __________________________________________^
*** ERROR #A9 IN 1207 (Src\JC.asm, LINE 1207): SYNTAX ERROR
*** ERROR #A9 IN 1207 (Src\JC.asm, LINE 1207): SYNTAX ERROR
                    1208             MOVW            AX,PA0  
*** _________________________________^
*** ERROR #A9 IN 1208 (Src\JC.asm, LINE 1208): SYNTAX ERROR
                    1209             CMP      A,H   
*** _________________________________^
*** ERROR #A9 IN 1209 (Src\JC.asm, LINE 1209): SYNTAX ERROR
                    1210             BC       $UDIV9
*** _________________________________^
*** ERROR #A9 IN 1210 (Src\JC.asm, LINE 1210): SYNTAX ERROR
                    1211             BNZ      $UDIV7
*** _________________________________^
*** ERROR #A9 IN 1211 (Src\JC.asm, LINE 1211): SYNTAX ERROR
0C19                1212             XCH      A,X
*** ____________________________________________^
*** ERROR #A45 IN 1212 (Src\JC.asm, LINE 1212): UNDEFINED SYMBOL (PASS-2)
                    1213             CMP      A,L 
*** _________________________________^
*** ERROR #A9 IN 1213 (Src\JC.asm, LINE 1213): SYNTAX ERROR
                    1214             BC       $UDIV9                 
*** _________________________________^
*** ERROR #A9 IN 1214 (Src\JC.asm, LINE 1214): SYNTAX ERROR
0C1B                1215     UDIV7:  
0C1B                1216             POP      AX
*** __________________________________________^
*** ERROR #A45 IN 1216 (Src\JC.asm, LINE 1216): UNDEFINED SYMBOL (PASS-2)
                    1217             ADDW     AX,#1  
*** _________________________________^
*** ERROR #A9 IN 1217 (Src\JC.asm, LINE 1217): SYNTAX ERROR
                    1218             MOVW    PA0,AX          
*** _________________________________^
*** ERROR #A9 IN 1218 (Src\JC.asm, LINE 1218): SYNTAX ERROR
0C1D                1219             POP     HL
*** _________________________________________^
*** ERROR #A45 IN 1219 (Src\JC.asm, LINE 1219): UNDEFINED SYMBOL (PASS-2)
0C1F                1220             POP     AX              
*** _________________________________________^
*** ERROR #A45 IN 1220 (Src\JC.asm, LINE 1220): UNDEFINED SYMBOL (PASS-2)
0C21 22             1221             RET     
0C22                1222     UDIV9:  
0C22                1223                     POP      AX
*** __________________________________________________^
*** ERROR #A45 IN 1223 (Src\JC.asm, LINE 1223): UNDEFINED SYMBOL (PASS-2)
                    1224                     MOVW    PA0,AX   
*** _________________________________________^
*** ERROR #A9 IN 1224 (Src\JC.asm, LINE 1224): SYNTAX ERROR
0C24                1225                     POP     HL
*** _________________________________________________^
*** ERROR #A45 IN 1225 (Src\JC.asm, LINE 1225): UNDEFINED SYMBOL (PASS-2)
A51 MACRO ASSEMBLER  JC                                                                   12/18/2017 16:56:46 PAGE    43

0C26                1226             POP     AX                                      
*** _________________________________________^
*** ERROR #A45 IN 1226 (Src\JC.asm, LINE 1226): UNDEFINED SYMBOL (PASS-2)
                    1227     ;---------------------modify_16_03-------------------------
0C28 22             1228             RET                     
                    1229     ;***********************************************************************************
                    1230     
                    1231     
                    1232     
                    1233     ;//*********************************************************************************************************  
                    1234      ;双字节乘法子程序   入口:     PA7：PA6  *   PA5：PA4              出口：  CHGI3：CHGI2C:CHGI1：CHGI0
                    1235      ;//*********************************************************************************************************  
0C29                1236      DWMULU:
0C29                1237             PUSH  AX
*** _______________________________________^
*** ERROR #A45 IN 1237 (Src\JC.asm, LINE 1237): UNDEFINED SYMBOL (PASS-2)
0C2B                1238             PUSH  BC
*** _______________________________________^
*** ERROR #A45 IN 1238 (Src\JC.asm, LINE 1238): UNDEFINED SYMBOL (PASS-2)
0C2D E524           1239             MOV   A,PA4
*** _________________________________________^
*** WARNING #A52 IN 1239 (Src\JC.asm, LINE 1239): VALUE HAS BEEN TRUNCATED TO 8 BITS
0C2F                1240             MOV   X,A
*** _______________________________________^
*** ERROR #A45 IN 1240 (Src\JC.asm, LINE 1240): UNDEFINED SYMBOL (PASS-2)
0C31 E526           1241             MOV   A,PA6
*** _________________________________________^
*** WARNING #A52 IN 1241 (Src\JC.asm, LINE 1241): VALUE HAS BEEN TRUNCATED TO 8 BITS
                    1242             MULU  X
*** _________________________________^
*** ERROR #A9 IN 1242 (Src\JC.asm, LINE 1242): SYNTAX ERROR
0C33 F59D           1243             MOV   CHGI1,A
*** _______________________________________^
*** WARNING #A52 IN 1243 (Src\JC.asm, LINE 1243): VALUE HAS BEEN TRUNCATED TO 8 BITS
0C35                1244             MOV   A,X
*** _________________________________________^
*** ERROR #A45 IN 1244 (Src\JC.asm, LINE 1244): UNDEFINED SYMBOL (PASS-2)
0C37 F59C           1245             MOV   CHGI0,A
*** _______________________________________^
*** WARNING #A52 IN 1245 (Src\JC.asm, LINE 1245): VALUE HAS BEEN TRUNCATED TO 8 BITS
                    1246                     
0C39 E524           1247             MOV   A,PA4
*** _________________________________________^
*** WARNING #A52 IN 1247 (Src\JC.asm, LINE 1247): VALUE HAS BEEN TRUNCATED TO 8 BITS
0C3B                1248             MOV   X,A
*** _______________________________________^
*** ERROR #A45 IN 1248 (Src\JC.asm, LINE 1248): UNDEFINED SYMBOL (PASS-2)
0C3D E527           1249             MOV   A,PA7
*** _________________________________________^
*** WARNING #A52 IN 1249 (Src\JC.asm, LINE 1249): VALUE HAS BEEN TRUNCATED TO 8 BITS
                    1250             MULU  X     
*** _________________________________^
*** ERROR #A9 IN 1250 (Src\JC.asm, LINE 1250): SYNTAX ERROR
0C3F                1251             MOV   C,A
*** _______________________________________^
*** ERROR #A40 IN 1251 (Src\JC.asm, LINE 1251): INVALID REGISTER
0C3F                1252             MOV   A,X
*** _________________________________________^
*** ERROR #A45 IN 1252 (Src\JC.asm, LINE 1252): UNDEFINED SYMBOL (PASS-2)
0C41 259D           1253             ADD   A,CHGI1
*** _________________________________________^
*** WARNING #A52 IN 1253 (Src\JC.asm, LINE 1253): VALUE HAS BEEN TRUNCATED TO 8 BITS
0C43 F59D           1254             MOV   CHGI1,A
*** _______________________________________^
*** WARNING #A52 IN 1254 (Src\JC.asm, LINE 1254): VALUE HAS BEEN TRUNCATED TO 8 BITS
0C45                1255             MOV   A,C
A51 MACRO ASSEMBLER  JC                                                                   12/18/2017 16:56:46 PAGE    44

*** _________________________________________^
*** ERROR #A40 IN 1255 (Src\JC.asm, LINE 1255): INVALID REGISTER
0C45 F59E           1256             MOV   CHGI2,A
*** _______________________________________^
*** WARNING #A52 IN 1256 (Src\JC.asm, LINE 1256): VALUE HAS BEEN TRUNCATED TO 8 BITS
0C47 7400           1257             MOV   A,#0
0C49 359E           1258             ADDC  A,CHGI2
*** _________________________________________^
*** WARNING #A52 IN 1258 (Src\JC.asm, LINE 1258): VALUE HAS BEEN TRUNCATED TO 8 BITS
0C4B F59E           1259             MOV   CHGI2,A
*** _______________________________________^
*** WARNING #A52 IN 1259 (Src\JC.asm, LINE 1259): VALUE HAS BEEN TRUNCATED TO 8 BITS
                    1260             
0C4D E525           1261             MOV   A,PA5
*** _________________________________________^
*** WARNING #A52 IN 1261 (Src\JC.asm, LINE 1261): VALUE HAS BEEN TRUNCATED TO 8 BITS
0C4F                1262             MOV   X,A
*** _______________________________________^
*** ERROR #A45 IN 1262 (Src\JC.asm, LINE 1262): UNDEFINED SYMBOL (PASS-2)
0C51 E526           1263             MOV   A,PA6
*** _________________________________________^
*** WARNING #A52 IN 1263 (Src\JC.asm, LINE 1263): VALUE HAS BEEN TRUNCATED TO 8 BITS
                    1264             MULU  X       
*** _________________________________^
*** ERROR #A9 IN 1264 (Src\JC.asm, LINE 1264): SYNTAX ERROR
0C53                1265             MOV   C,A
*** _______________________________________^
*** ERROR #A40 IN 1265 (Src\JC.asm, LINE 1265): INVALID REGISTER
0C53                1266             MOV   A,X
*** _________________________________________^
*** ERROR #A45 IN 1266 (Src\JC.asm, LINE 1266): UNDEFINED SYMBOL (PASS-2)
0C55 259D           1267             ADD   A,CHGI1
*** _________________________________________^
*** WARNING #A52 IN 1267 (Src\JC.asm, LINE 1267): VALUE HAS BEEN TRUNCATED TO 8 BITS
0C57 F59D           1268             MOV   CHGI1,A        
*** _______________________________________^
*** WARNING #A52 IN 1268 (Src\JC.asm, LINE 1268): VALUE HAS BEEN TRUNCATED TO 8 BITS
0C59                1269             MOV   A,C
*** _________________________________________^
*** ERROR #A40 IN 1269 (Src\JC.asm, LINE 1269): INVALID REGISTER
0C59 359E           1270             ADDC  A,CHGI2
*** _________________________________________^
*** WARNING #A52 IN 1270 (Src\JC.asm, LINE 1270): VALUE HAS BEEN TRUNCATED TO 8 BITS
0C5B F59E           1271             MOV   CHGI2,A
*** _______________________________________^
*** WARNING #A52 IN 1271 (Src\JC.asm, LINE 1271): VALUE HAS BEEN TRUNCATED TO 8 BITS
                    1272             
0C5D E527           1273             MOV   A,PA7
*** _________________________________________^
*** WARNING #A52 IN 1273 (Src\JC.asm, LINE 1273): VALUE HAS BEEN TRUNCATED TO 8 BITS
0C5F                1274             MOV   X,A
*** _______________________________________^
*** ERROR #A45 IN 1274 (Src\JC.asm, LINE 1274): UNDEFINED SYMBOL (PASS-2)
0C61 E525           1275             MOV   A,PA5
*** _________________________________________^
*** WARNING #A52 IN 1275 (Src\JC.asm, LINE 1275): VALUE HAS BEEN TRUNCATED TO 8 BITS
                    1276             MULU  X
*** _________________________________^
*** ERROR #A9 IN 1276 (Src\JC.asm, LINE 1276): SYNTAX ERROR
0C63                1277             MOV   C,A
*** _______________________________________^
*** ERROR #A40 IN 1277 (Src\JC.asm, LINE 1277): INVALID REGISTER
0C63                1278             MOV   A,X        
*** _________________________________________^
*** ERROR #A45 IN 1278 (Src\JC.asm, LINE 1278): UNDEFINED SYMBOL (PASS-2)
0C65 259E           1279             ADD   A,CHGI2
A51 MACRO ASSEMBLER  JC                                                                   12/18/2017 16:56:46 PAGE    45

*** _________________________________________^
*** WARNING #A52 IN 1279 (Src\JC.asm, LINE 1279): VALUE HAS BEEN TRUNCATED TO 8 BITS
0C67 F59E           1280             MOV   CHGI2,A       
*** _______________________________________^
*** WARNING #A52 IN 1280 (Src\JC.asm, LINE 1280): VALUE HAS BEEN TRUNCATED TO 8 BITS
0C69 7400           1281             MOV   A,#0
0C6B                1282             ADDC  A,C
*** _________________________________________^
*** ERROR #A40 IN 1282 (Src\JC.asm, LINE 1282): INVALID REGISTER
0C6B F59F           1283             MOV   CHGI3,A
*** _______________________________________^
*** WARNING #A52 IN 1283 (Src\JC.asm, LINE 1283): VALUE HAS BEEN TRUNCATED TO 8 BITS
0C6D                1284             POP   BC
*** _______________________________________^
*** ERROR #A45 IN 1284 (Src\JC.asm, LINE 1284): UNDEFINED SYMBOL (PASS-2)
0C6F                1285             POP   AX
*** _______________________________________^
*** ERROR #A45 IN 1285 (Src\JC.asm, LINE 1285): UNDEFINED SYMBOL (PASS-2)
0C71 22             1286             RET
                    1287     
                    1288     ;***********************************************************************************
                    1289     ;****PA1:PA0*PA2=PA2:PA1:PA0
                    1290     ;**********************************************************************************
0C72                1291     UMUL:
0C72 E521           1292                       MOV   A,PA1
*** ___________________________________________________^
*** WARNING #A52 IN 1292 (Src\JC.asm, LINE 1292): VALUE HAS BEEN TRUNCATED TO 8 BITS
0C74                1293               MOV   X,A
*** _________________________________________^
*** ERROR #A45 IN 1293 (Src\JC.asm, LINE 1293): UNDEFINED SYMBOL (PASS-2)
0C76 E522           1294               MOV   A,PA2
*** ___________________________________________^
*** WARNING #A52 IN 1294 (Src\JC.asm, LINE 1294): VALUE HAS BEEN TRUNCATED TO 8 BITS
                    1295               MULU  X
*** ___________________________________^
*** ERROR #A9 IN 1295 (Src\JC.asm, LINE 1295): SYNTAX ERROR
                    1296               MOVW  PA4,AX
*** ___________________________________^
*** ERROR #A9 IN 1296 (Src\JC.asm, LINE 1296): SYNTAX ERROR
0C78 E520           1297               MOV   A,PA0
*** ___________________________________________^
*** WARNING #A52 IN 1297 (Src\JC.asm, LINE 1297): VALUE HAS BEEN TRUNCATED TO 8 BITS
0C7A                1298               MOV   X,A
*** _________________________________________^
*** ERROR #A45 IN 1298 (Src\JC.asm, LINE 1298): UNDEFINED SYMBOL (PASS-2)
0C7C E522           1299               MOV   A,PA2
*** ___________________________________________^
*** WARNING #A52 IN 1299 (Src\JC.asm, LINE 1299): VALUE HAS BEEN TRUNCATED TO 8 BITS
                    1300               MULU  X
*** ___________________________________^
*** ERROR #A9 IN 1300 (Src\JC.asm, LINE 1300): SYNTAX ERROR
                    1301               MOVW  PA0,AX
*** ___________________________________^
*** ERROR #A9 IN 1301 (Src\JC.asm, LINE 1301): SYNTAX ERROR
0C7E 2524           1302               ADD   A,PA4
*** ___________________________________________^
*** WARNING #A52 IN 1302 (Src\JC.asm, LINE 1302): VALUE HAS BEEN TRUNCATED TO 8 BITS
0C80 F521           1303               MOV   PA1,A
*** _________________________________________^
*** WARNING #A52 IN 1303 (Src\JC.asm, LINE 1303): VALUE HAS BEEN TRUNCATED TO 8 BITS
0C82 E525           1304               MOV   A,PA5
*** ___________________________________________^
*** WARNING #A52 IN 1304 (Src\JC.asm, LINE 1304): VALUE HAS BEEN TRUNCATED TO 8 BITS
0C84 3400           1305               ADDC  A,#0
0C86 F522           1306               MOV   PA2,A
*** _________________________________________^
A51 MACRO ASSEMBLER  JC                                                                   12/18/2017 16:56:46 PAGE    46

*** WARNING #A52 IN 1306 (Src\JC.asm, LINE 1306): VALUE HAS BEEN TRUNCATED TO 8 BITS
0C88 22             1307               RET
                    1308     ;************************************************************************************          
                    1309     ;*=======对R1:R0取反===============
                    1310     ;*入口:  R1:R0
                    1311     ;*出口:  R1:R0
                    1312     ;*占用变量: A
                    1313     ;*作用:  当R1:R0为负时，取得绝对值
0C89                1314     ABSOLUT:   
0C89 7400           1315                       MOV   A,#0      ;小于对R1:R0取绝对值
                    1316               SUB   A,PA0
*** ___________________________________^
*** ERROR #A9 IN 1316 (Src\JC.asm, LINE 1316): SYNTAX ERROR
0C8B F520           1317               MOV   PA0,A
*** _________________________________________^
*** WARNING #A52 IN 1317 (Src\JC.asm, LINE 1317): VALUE HAS BEEN TRUNCATED TO 8 BITS
0C8D 7400           1318               MOV   A,#0
                    1319               SUBC  A,PA1
*** ___________________________________^
*** ERROR #A9 IN 1319 (Src\JC.asm, LINE 1319): SYNTAX ERROR
0C8F F521           1320               MOV   PA1,A
*** _________________________________________^
*** WARNING #A52 IN 1320 (Src\JC.asm, LINE 1320): VALUE HAS BEEN TRUNCATED TO 8 BITS
0C91 22             1321               RET
                    1322               
                    1323     ;************************************************************************************
                    1324     ;*=======压力平台处理===========
                    1325     ;*入口: MAXPRE
                    1326     ;*出口:,A=有修改，A=0已经最大,MAXPRE
                    1327     ;*占用变量: A,MAXPRE
                    1328     ;*调用函?:  NO
                    1329     ;MAXPREUP:  
                    1330     ;************************************************************************************
0C92                1331     MAXPREUP:                 
                    1332                       MOVW  AX,MAXPRE
*** ___________________________________________^
*** ERROR #A9 IN 1332 (Src\JC.asm, LINE 1332): SYNTAX ERROR
0C92                1333               XCH   A,X
*** ___________________________________________^
*** ERROR #A45 IN 1333 (Src\JC.asm, LINE 1333): UNDEFINED SYMBOL (PASS-2)
                    1334               SUB   A,MAXEND
*** ___________________________________^
*** ERROR #A9 IN 1334 (Src\JC.asm, LINE 1334): SYNTAX ERROR
0C94                1335               XCH   A,X
*** ___________________________________________^
*** ERROR #A45 IN 1335 (Src\JC.asm, LINE 1335): UNDEFINED SYMBOL (PASS-2)
                    1336               SUBC  A,MAXEDM
*** ___________________________________^
*** ERROR #A9 IN 1336 (Src\JC.asm, LINE 1336): SYNTAX ERROR
0C96 E559           1337               MOV   A,MAXPEH
*** ___________________________________________^
*** WARNING #A52 IN 1337 (Src\JC.asm, LINE 1337): VALUE HAS BEEN TRUNCATED TO 8 BITS
                    1338               SUBC  A,MAXEDH
*** ___________________________________^
*** ERROR #A9 IN 1338 (Src\JC.asm, LINE 1338): SYNTAX ERROR
                    1339               
                    1340               BNC   $UPEND2                ;----------------------
*** ___________________________________^
*** ERROR #A9 IN 1340 (Src\JC.asm, LINE 1340): SYNTAX ERROR
                    1341               MOVW  AX,MAXPRE
*** ___________________________________^
*** ERROR #A9 IN 1341 (Src\JC.asm, LINE 1341): SYNTAX ERROR
0C98                1342               XCH   A,X
*** ___________________________________________^
*** ERROR #A45 IN 1342 (Src\JC.asm, LINE 1342): UNDEFINED SYMBOL (PASS-2)
0C9A 2554           1343               ADD   A,MAXSTEP
A51 MACRO ASSEMBLER  JC                                                                   12/18/2017 16:56:46 PAGE    47

*** ___________________________________________^
*** WARNING #A52 IN 1343 (Src\JC.asm, LINE 1343): VALUE HAS BEEN TRUNCATED TO 8 BITS
0C9C                1344               XCH   A,X
*** ___________________________________________^
*** ERROR #A45 IN 1344 (Src\JC.asm, LINE 1344): UNDEFINED SYMBOL (PASS-2)
0C9E 3555           1345               ADDC  A,MAXSTPM
*** ___________________________________________^
*** WARNING #A52 IN 1345 (Src\JC.asm, LINE 1345): VALUE HAS BEEN TRUNCATED TO 8 BITS
                    1346               MOVW  MAXPRE,AX
*** ___________________________________^
*** ERROR #A9 IN 1346 (Src\JC.asm, LINE 1346): SYNTAX ERROR
0CA0 E559           1347               MOV   A,MAXPEH
*** ___________________________________________^
*** WARNING #A52 IN 1347 (Src\JC.asm, LINE 1347): VALUE HAS BEEN TRUNCATED TO 8 BITS
0CA2 3553           1348               ADDC  A,MAXSTPH
*** ___________________________________________^
*** WARNING #A52 IN 1348 (Src\JC.asm, LINE 1348): VALUE HAS BEEN TRUNCATED TO 8 BITS
0CA4 F559           1349               MOV   MAXPEH,A
*** _________________________________________^
*** WARNING #A52 IN 1349 (Src\JC.asm, LINE 1349): VALUE HAS BEEN TRUNCATED TO 8 BITS
                    1350              
                    1351               MOVW  AX,MAXPRE
*** ___________________________________^
*** ERROR #A9 IN 1351 (Src\JC.asm, LINE 1351): SYNTAX ERROR
0CA6                1352               XCH   A,X
*** ___________________________________________^
*** ERROR #A45 IN 1352 (Src\JC.asm, LINE 1352): UNDEFINED SYMBOL (PASS-2)
                    1353               SUB   A,MAXEND
*** ___________________________________^
*** ERROR #A9 IN 1353 (Src\JC.asm, LINE 1353): SYNTAX ERROR
0CA8                1354               XCH   A,X
*** ___________________________________________^
*** ERROR #A45 IN 1354 (Src\JC.asm, LINE 1354): UNDEFINED SYMBOL (PASS-2)
                    1355               SUBC  A,MAXEDM
*** ___________________________________^
*** ERROR #A9 IN 1355 (Src\JC.asm, LINE 1355): SYNTAX ERROR
0CAA E559           1356               MOV   A,MAXPEH
*** ___________________________________________^
*** WARNING #A52 IN 1356 (Src\JC.asm, LINE 1356): VALUE HAS BEEN TRUNCATED TO 8 BITS
                    1357               SUBC  A,MAXEDH
*** ___________________________________^
*** ERROR #A9 IN 1357 (Src\JC.asm, LINE 1357): SYNTAX ERROR
                    1358               BC    $UPEND1                ;--------------------------
*** ___________________________________^
*** ERROR #A9 IN 1358 (Src\JC.asm, LINE 1358): SYNTAX ERROR
                    1359               MOVW  AX,MAXEND
*** ___________________________________^
*** ERROR #A9 IN 1359 (Src\JC.asm, LINE 1359): SYNTAX ERROR
                    1360               MOVW  MAXPRE,AX
*** ___________________________________^
*** ERROR #A9 IN 1360 (Src\JC.asm, LINE 1360): SYNTAX ERROR
0CAC E558           1361               MOV   A,MAXEDH
*** ___________________________________________^
*** WARNING #A52 IN 1361 (Src\JC.asm, LINE 1361): VALUE HAS BEEN TRUNCATED TO 8 BITS
0CAE F559           1362               MOV   MAXPEH,A
*** _________________________________________^
*** WARNING #A52 IN 1362 (Src\JC.asm, LINE 1362): VALUE HAS BEEN TRUNCATED TO 8 BITS
0CB0                1363     UPEND1:
0CB0 7401           1364               MOV   A,#1
0CB2 22             1365               RET
0CB3                1366     UPEND2: 
                    1367               
                    1368               MOVW  AX,MAXEND
*** ___________________________________^
*** ERROR #A9 IN 1368 (Src\JC.asm, LINE 1368): SYNTAX ERROR
                    1369               MOVW  MAXPRE,AX
A51 MACRO ASSEMBLER  JC                                                                   12/18/2017 16:56:46 PAGE    48

*** ___________________________________^
*** ERROR #A9 IN 1369 (Src\JC.asm, LINE 1369): SYNTAX ERROR
0CB3 E558           1370               MOV   A,MAXEDH
*** ___________________________________________^
*** WARNING #A52 IN 1370 (Src\JC.asm, LINE 1370): VALUE HAS BEEN TRUNCATED TO 8 BITS
0CB5 F559           1371               MOV   MAXPEH,A
*** _________________________________________^
*** WARNING #A52 IN 1371 (Src\JC.asm, LINE 1371): VALUE HAS BEEN TRUNCATED TO 8 BITS
                    1372               
0CB7 7400           1373               MOV   A,#0  
0CB9 22             1374               RET
                    1375     ;************************************************************************************
                    1376     
                    1377     
                    1378     ;************************************************************************************
0CBA                1379     DRE:
0CBA 752604         1380               MOV   PA6,#4
*** _________________________________________^
*** WARNING #A52 IN 1380 (Src\JC.asm, LINE 1380): VALUE HAS BEEN TRUNCATED TO 8 BITS
0CBD 752400         1381               MOV   PA4,#0
*** _________________________________________^
*** WARNING #A52 IN 1381 (Src\JC.asm, LINE 1381): VALUE HAS BEEN TRUNCATED TO 8 BITS
0CC0 752500         1382               MOV   PA5,#0
*** _________________________________________^
*** WARNING #A52 IN 1382 (Src\JC.asm, LINE 1382): VALUE HAS BEEN TRUNCATED TO 8 BITS
0CC3                1383     DRE1:
0CC3 E526           1384               MOV   A,PA6
*** ___________________________________________^
*** WARNING #A52 IN 1384 (Src\JC.asm, LINE 1384): VALUE HAS BEEN TRUNCATED TO 8 BITS
0CC5                1385               CALL  !OPTRSUB
*** _________________________________________^
*** __________________________________________^
*** ERROR #A9 IN 1385 (Src\JC.asm, LINE 1385): SYNTAX ERROR
*** ERROR #A9 IN 1385 (Src\JC.asm, LINE 1385): SYNTAX ERROR
0CC5 F521           1386               MOV   PA1,A
*** _________________________________________^
*** WARNING #A52 IN 1386 (Src\JC.asm, LINE 1386): VALUE HAS BEEN TRUNCATED TO 8 BITS
0CC7 E526           1387               MOV   A,PA6
*** ___________________________________________^
*** WARNING #A52 IN 1387 (Src\JC.asm, LINE 1387): VALUE HAS BEEN TRUNCATED TO 8 BITS
0CC9 14             1388               DEC   A
0CCA                1389               CALL  !OPTRSUB
*** _________________________________________^
*** __________________________________________^
*** ERROR #A9 IN 1389 (Src\JC.asm, LINE 1389): SYNTAX ERROR
*** ERROR #A9 IN 1389 (Src\JC.asm, LINE 1389): SYNTAX ERROR
0CCA F520           1390               MOV   PA0,A
*** _________________________________________^
*** WARNING #A52 IN 1390 (Src\JC.asm, LINE 1390): VALUE HAS BEEN TRUNCATED TO 8 BITS
0CCC E52C           1391               MOV   A,Y
*** ___________________________________________^
*** WARNING #A52 IN 1391 (Src\JC.asm, LINE 1391): VALUE HAS BEEN TRUNCATED TO 8 BITS
0CCE F522           1392               MOV   PA2,A
*** _________________________________________^
*** WARNING #A52 IN 1392 (Src\JC.asm, LINE 1392): VALUE HAS BEEN TRUNCATED TO 8 BITS
0CD0                1393               CALL  !BUFCMP
*** _________________________________________^
*** __________________________________________^
*** ERROR #A9 IN 1393 (Src\JC.asm, LINE 1393): SYNTAX ERROR
*** ERROR #A9 IN 1393 (Src\JC.asm, LINE 1393): SYNTAX ERROR
                    1394               CMP   PA6,#4
*** ___________________________________^
*** ERROR #A9 IN 1394 (Src\JC.asm, LINE 1394): SYNTAX ERROR
                    1395               BC    $DRE11
*** ___________________________________^
*** ERROR #A9 IN 1395 (Src\JC.asm, LINE 1395): SYNTAX ERROR
A51 MACRO ASSEMBLER  JC                                                                   12/18/2017 16:56:46 PAGE    49

                    1396               CMP   A,#1
*** ___________________________________^
*** ERROR #A9 IN 1396 (Src\JC.asm, LINE 1396): SYNTAX ERROR
                    1397               BNZ   $DRE3
*** ___________________________________^
*** ERROR #A9 IN 1397 (Src\JC.asm, LINE 1397): SYNTAX ERROR
0CD0                1398     DRE11:
                    1399               CMP   A,#0FFH
*** ___________________________________^
*** ERROR #A9 IN 1399 (Src\JC.asm, LINE 1399): SYNTAX ERROR
                    1400               BZ    $DRE3
*** ___________________________________^
*** ERROR #A9 IN 1400 (Src\JC.asm, LINE 1400): SYNTAX ERROR
                    1401               CMP   A,#1
*** ___________________________________^
*** ERROR #A9 IN 1401 (Src\JC.asm, LINE 1401): SYNTAX ERROR
                    1402               BNZ   $DRE2
*** ___________________________________^
*** ERROR #A9 IN 1402 (Src\JC.asm, LINE 1402): SYNTAX ERROR
0CD0 0524           1403               INC   PA4
*** _________________________________________^
*** WARNING #A52 IN 1403 (Src\JC.asm, LINE 1403): VALUE HAS BEEN TRUNCATED TO 8 BITS
0CD2                1404     DRE2:
0CD2 0525           1405               INC   PA5
*** _________________________________________^
*** WARNING #A52 IN 1405 (Src\JC.asm, LINE 1405): VALUE HAS BEEN TRUNCATED TO 8 BITS
                    1406               DBNZ  PA6,$DRE1
*** ___________________________________^
*** ERROR #A9 IN 1406 (Src\JC.asm, LINE 1406): SYNTAX ERROR
0CD4                1407     DRE3:
                    1408               CMP   PA4,#3
*** ___________________________________^
*** ERROR #A9 IN 1408 (Src\JC.asm, LINE 1408): SYNTAX ERROR
                    1409               BNC   $DRE5
*** ___________________________________^
*** ERROR #A9 IN 1409 (Src\JC.asm, LINE 1409): SYNTAX ERROR
                    1410               CMP   PA4,#2
*** ___________________________________^
*** ERROR #A9 IN 1410 (Src\JC.asm, LINE 1410): SYNTAX ERROR
                    1411               BC    $DRE4
*** ___________________________________^
*** ERROR #A9 IN 1411 (Src\JC.asm, LINE 1411): SYNTAX ERROR
0CD4 E525           1412               MOV   A,PA5
*** ___________________________________________^
*** WARNING #A52 IN 1412 (Src\JC.asm, LINE 1412): VALUE HAS BEEN TRUNCATED TO 8 BITS
                    1413               CMP   A,#4
*** ___________________________________^
*** ERROR #A9 IN 1413 (Src\JC.asm, LINE 1413): SYNTAX ERROR
                    1414               BNC   $DRE5
*** ___________________________________^
*** ERROR #A9 IN 1414 (Src\JC.asm, LINE 1414): SYNTAX ERROR
0CD6                1415     DRE4:      
0CD6 7400           1416                       MOV   A,#0
0CD8 22             1417               RET
                    1418     ;更改: 2000.11.22, 
0CD9                1419     DRE5:      
0CD9 7404           1420                       MOV   A,#4
                    1421               SUB   A,PA6
*** ___________________________________^
*** ERROR #A9 IN 1421 (Src\JC.asm, LINE 1421): SYNTAX ERROR
0CDB F520           1422               MOV   PA0,A
*** _________________________________________^
*** WARNING #A52 IN 1422 (Src\JC.asm, LINE 1422): VALUE HAS BEEN TRUNCATED TO 8 BITS
0CDD E524           1423               MOV   A,PA4
*** ___________________________________________^
*** WARNING #A52 IN 1423 (Src\JC.asm, LINE 1423): VALUE HAS BEEN TRUNCATED TO 8 BITS
A51 MACRO ASSEMBLER  JC                                                                   12/18/2017 16:56:46 PAGE    50

                    1424               SUB   A,#2
*** ___________________________________^
*** ERROR #A9 IN 1424 (Src\JC.asm, LINE 1424): SYNTAX ERROR
0CDF                1425     DREEND:    
0CDF 22             1426               RET
                    1427     ;************************************************************************************
0CE0                1428     ACALVAVG: 
0CE0 7404           1429                       MOV   A,#4        
0CE2                1430               CALL  !LDOPTRA
*** _________________________________________^
*** __________________________________________^
*** ERROR #A9 IN 1430 (Src\JC.asm, LINE 1430): SYNTAX ERROR
*** ERROR #A9 IN 1430 (Src\JC.asm, LINE 1430): SYNTAX ERROR
0CE2 E536           1431               MOV   A,STARTPL
*** ___________________________________________^
*** WARNING #A52 IN 1431 (Src\JC.asm, LINE 1431): VALUE HAS BEEN TRUNCATED TO 8 BITS
                    1432               SUB   A,PA0
*** ___________________________________^
*** ERROR #A9 IN 1432 (Src\JC.asm, LINE 1432): SYNTAX ERROR
0CE4 F520           1433               MOV   PA0,A
*** _________________________________________^
*** WARNING #A52 IN 1433 (Src\JC.asm, LINE 1433): VALUE HAS BEEN TRUNCATED TO 8 BITS
0CE6 E537           1434               MOV   A,STARTPH
*** ___________________________________________^
*** WARNING #A52 IN 1434 (Src\JC.asm, LINE 1434): VALUE HAS BEEN TRUNCATED TO 8 BITS
                    1435               SUBC  A,PA1
*** ___________________________________^
*** ERROR #A9 IN 1435 (Src\JC.asm, LINE 1435): SYNTAX ERROR
0CE8 F521           1436               MOV   PA1,A          ;R1:R0=STARTP-BUF[OPTR-4]或者-BUF平均
*** _________________________________________^
*** WARNING #A52 IN 1436 (Src\JC.asm, LINE 1436): VALUE HAS BEEN TRUNCATED TO 8 BITS
                    1437               BNC   $ACALV1
*** ___________________________________^
*** ERROR #A9 IN 1437 (Src\JC.asm, LINE 1437): SYNTAX ERROR
0CEA 752100         1438               MOV   PA1,#0
*** _________________________________________^
*** WARNING #A52 IN 1438 (Src\JC.asm, LINE 1438): VALUE HAS BEEN TRUNCATED TO 8 BITS
0CED 752000         1439               MOV   PA0,#0
*** _________________________________________^
*** WARNING #A52 IN 1439 (Src\JC.asm, LINE 1439): VALUE HAS BEEN TRUNCATED TO 8 BITS
0CF0                1440     ACALV1:
0CF0 752210         1441               MOV   PA2,#10H
*** _________________________________________^
*** WARNING #A52 IN 1441 (Src\JC.asm, LINE 1441): VALUE HAS BEEN TRUNCATED TO 8 BITS
0CF3                1442               CALL  !UMUL
*** _________________________________________^
*** __________________________________________^
*** ERROR #A9 IN 1442 (Src\JC.asm, LINE 1442): SYNTAX ERROR
*** ERROR #A9 IN 1442 (Src\JC.asm, LINE 1442): SYNTAX ERROR
0CF3 752300         1443               MOV   PA3,#0
*** _________________________________________^
*** WARNING #A52 IN 1443 (Src\JC.asm, LINE 1443): VALUE HAS BEEN TRUNCATED TO 8 BITS
0CF6 E544           1444               MOV   A,COUNT
*** ___________________________________________^
*** WARNING #A52 IN 1444 (Src\JC.asm, LINE 1444): VALUE HAS BEEN TRUNCATED TO 8 BITS
                    1445               SUB   A,#4
*** ___________________________________^
*** ERROR #A9 IN 1445 (Src\JC.asm, LINE 1445): SYNTAX ERROR
0CF8                1446     ACALV11:    
0CF8 F524           1447               MOV   PA4,A
*** _________________________________________^
*** WARNING #A52 IN 1447 (Src\JC.asm, LINE 1447): VALUE HAS BEEN TRUNCATED TO 8 BITS
0CFA 752500         1448               MOV   PA5,#0
*** _________________________________________^
*** WARNING #A52 IN 1448 (Src\JC.asm, LINE 1448): VALUE HAS BEEN TRUNCATED TO 8 BITS
0CFD 752300         1449               MOV   PA3,#0
A51 MACRO ASSEMBLER  JC                                                                   12/18/2017 16:56:46 PAGE    51

*** _________________________________________^
*** WARNING #A52 IN 1449 (Src\JC.asm, LINE 1449): VALUE HAS BEEN TRUNCATED TO 8 BITS
0D00 752200         1450               MOV   PA2,#0
*** _________________________________________^
*** WARNING #A52 IN 1450 (Src\JC.asm, LINE 1450): VALUE HAS BEEN TRUNCATED TO 8 BITS
0D03                1451               CALL  !UDIV        ;R0,R1中存放了本次心跳的Y
*** _________________________________________^
*** __________________________________________^
*** ERROR #A9 IN 1451 (Src\JC.asm, LINE 1451): SYNTAX ERROR
*** ERROR #A9 IN 1451 (Src\JC.asm, LINE 1451): SYNTAX ERROR
0D03 752200         1452               MOV   PA2,#0  ;        PR1PR0中存放了本次心跳的VAVG
*** _________________________________________^
*** WARNING #A52 IN 1452 (Src\JC.asm, LINE 1452): VALUE HAS BEEN TRUNCATED TO 8 BITS
0D06 752300         1453               MOV   PA3,#0
*** _________________________________________^
*** WARNING #A52 IN 1453 (Src\JC.asm, LINE 1453): VALUE HAS BEEN TRUNCATED TO 8 BITS
                    1454               CMP   BPPTR,#6        ;若 BPPTR<=5 则不进行阈值抗干扰
*** ___________________________________^
*** ERROR #A9 IN 1454 (Src\JC.asm, LINE 1454): SYNTAX ERROR
                    1455               BNC   $ACALV3A
*** ___________________________________^
*** ERROR #A9 IN 1455 (Src\JC.asm, LINE 1455): SYNTAX ERROR
                    1456               BR    !ACALV3
*** ___________________________________^
*** _________________________________________^
*** ERROR #A9 IN 1456 (Src\JC.asm, LINE 1456): SYNTAX ERROR
*** ERROR #A3 IN 1456 (Src\JC.asm, LINE 1456): ILLEGAL CHARACTER
0D09                1457     ACALV3A:                  
0D09 7475           1458               MOV   A,#75H          ;VAVG小于13时的处理
                    1459               CMP   VAVG,#4CH
*** ___________________________________^
*** ERROR #A9 IN 1459 (Src\JC.asm, LINE 1459): SYNTAX ERROR
                    1460               BNC   $ACALV12
*** ___________________________________^
*** ERROR #A9 IN 1460 (Src\JC.asm, LINE 1460): SYNTAX ERROR
                    1461               CMP   VAVG,#23H
*** ___________________________________^
*** ERROR #A9 IN 1461 (Src\JC.asm, LINE 1461): SYNTAX ERROR
                    1462               BC    $AACALV11
*** ___________________________________^
*** ERROR #A9 IN 1462 (Src\JC.asm, LINE 1462): SYNTAX ERROR
0D0B 742E           1463               MOV   A,#2EH
0D0D                1464     AACALV11:
0D0D 254F           1465               ADD   A,VAVG
*** ___________________________________________^
*** WARNING #A52 IN 1465 (Src\JC.asm, LINE 1465): VALUE HAS BEEN TRUNCATED TO 8 BITS
                    1466               CMP   A,PA0
*** ___________________________________^
*** ERROR #A9 IN 1466 (Src\JC.asm, LINE 1466): SYNTAX ERROR
                    1467               BNC   $ACALV3
*** ___________________________________^
*** ERROR #A9 IN 1467 (Src\JC.asm, LINE 1467): SYNTAX ERROR
                    1468               BR    $ACALV2
*** ___________________________________^
*** ERROR #A9 IN 1468 (Src\JC.asm, LINE 1468): SYNTAX ERROR
0D0F                1469     ACALV12:
0D0F 752400         1470               MOV   PA4,#0  ;VAVG>=13时的处理
*** _________________________________________^
*** WARNING #A52 IN 1470 (Src\JC.asm, LINE 1470): VALUE HAS BEEN TRUNCATED TO 8 BITS
                    1471               CMP   BPPTR,#10
*** ___________________________________^
*** ERROR #A9 IN 1471 (Src\JC.asm, LINE 1471): SYNTAX ERROR
                    1472               BC    $ACALV14
*** ___________________________________^
*** ERROR #A9 IN 1472 (Src\JC.asm, LINE 1472): SYNTAX ERROR
                    1473               CMP   VAVG,#8DH
A51 MACRO ASSEMBLER  JC                                                                   12/18/2017 16:56:46 PAGE    52

*** ___________________________________^
*** ERROR #A9 IN 1473 (Src\JC.asm, LINE 1473): SYNTAX ERROR
                    1474               BC    $ACALV13
*** ___________________________________^
*** ERROR #A9 IN 1474 (Src\JC.asm, LINE 1474): SYNTAX ERROR
0D12 0524           1475               INC   PA4
*** _________________________________________^
*** WARNING #A52 IN 1475 (Src\JC.asm, LINE 1475): VALUE HAS BEEN TRUNCATED TO 8 BITS
0D14                1476     ACALV13:        
0D14 0524           1477               INC   PA4
*** _________________________________________^
*** WARNING #A52 IN 1477 (Src\JC.asm, LINE 1477): VALUE HAS BEEN TRUNCATED TO 8 BITS
0D16                1478     ACALV14:
0D16 E524           1479                       MOV   A,PA4
*** ___________________________________________________^
*** WARNING #A52 IN 1479 (Src\JC.asm, LINE 1479): VALUE HAS BEEN TRUNCATED TO 8 BITS
0D18                1480                       XCH   A,X
*** ___________________________________________________^
*** ERROR #A45 IN 1480 (Src\JC.asm, LINE 1480): UNDEFINED SYMBOL (PASS-2)
0D1A 7400           1481                       MOV   A,#0
                    1482                       ADDW  AX,#VPARL
*** ___________________________________________^
*** ERROR #A9 IN 1482 (Src\JC.asm, LINE 1482): SYNTAX ERROR
                    1483                       MOVW  HL,AX
*** ___________________________________________^
*** ERROR #A9 IN 1483 (Src\JC.asm, LINE 1483): SYNTAX ERROR
0D1C                1484                       MOV   A,[HL]
*** ___________________________________________________^
*** ____________________________________________________^
*** ______________________________________________________^
*** ERROR #A9 IN 1484 (Src\JC.asm, LINE 1484): SYNTAX ERROR
*** ERROR #A9 IN 1484 (Src\JC.asm, LINE 1484): SYNTAX ERROR
*** ERROR #A9 IN 1484 (Src\JC.asm, LINE 1484): SYNTAX ERROR
0D1C F522           1485                       MOV   PA2,A
*** _________________________________________________^
*** WARNING #A52 IN 1485 (Src\JC.asm, LINE 1485): VALUE HAS BEEN TRUNCATED TO 8 BITS
0D1E E524           1486                       MOV   A,PA4
*** ___________________________________________________^
*** WARNING #A52 IN 1486 (Src\JC.asm, LINE 1486): VALUE HAS BEEN TRUNCATED TO 8 BITS
0D20                1487                       XCH   A,X
*** ___________________________________________________^
*** ERROR #A45 IN 1487 (Src\JC.asm, LINE 1487): UNDEFINED SYMBOL (PASS-2)
0D22 7400           1488                       MOV   A,#0
                    1489                       ADDW  AX,#VPARH
*** ___________________________________________^
*** ERROR #A9 IN 1489 (Src\JC.asm, LINE 1489): SYNTAX ERROR
                    1490                       MOVW  HL,AX
*** ___________________________________________^
*** ERROR #A9 IN 1490 (Src\JC.asm, LINE 1490): SYNTAX ERROR
0D24                1491                       MOV   A,[HL]
*** ___________________________________________________^
*** ____________________________________________________^
*** ______________________________________________________^
*** ERROR #A9 IN 1491 (Src\JC.asm, LINE 1491): SYNTAX ERROR
*** ERROR #A9 IN 1491 (Src\JC.asm, LINE 1491): SYNTAX ERROR
*** ERROR #A9 IN 1491 (Src\JC.asm, LINE 1491): SYNTAX ERROR
0D24                1492                       MOV   X,A
*** _________________________________________________^
*** ERROR #A45 IN 1492 (Src\JC.asm, LINE 1492): UNDEFINED SYMBOL (PASS-2)
0D26 E54F           1493                       MOV   A,VAVG
*** ___________________________________________________^
*** WARNING #A52 IN 1493 (Src\JC.asm, LINE 1493): VALUE HAS BEEN TRUNCATED TO 8 BITS
                    1494                       MULU  X
*** ___________________________________________^
*** ERROR #A9 IN 1494 (Src\JC.asm, LINE 1494): SYNTAX ERROR
                    1495                       MOVW  PA4,AX
A51 MACRO ASSEMBLER  JC                                                                   12/18/2017 16:56:46 PAGE    53

*** ___________________________________________^
*** ERROR #A9 IN 1495 (Src\JC.asm, LINE 1495): SYNTAX ERROR
0D28 E522           1496                       MOV   A,PA2
*** ___________________________________________________^
*** WARNING #A52 IN 1496 (Src\JC.asm, LINE 1496): VALUE HAS BEEN TRUNCATED TO 8 BITS
0D2A                1497                       MOV   X,A
*** _________________________________________________^
*** ERROR #A45 IN 1497 (Src\JC.asm, LINE 1497): UNDEFINED SYMBOL (PASS-2)
0D2C E54F           1498                       MOV   A,VAVG
*** ___________________________________________________^
*** WARNING #A52 IN 1498 (Src\JC.asm, LINE 1498): VALUE HAS BEEN TRUNCATED TO 8 BITS
                    1499                   MULU      X
*** _______________________________________^
*** ERROR #A9 IN 1499 (Src\JC.asm, LINE 1499): SYNTAX ERROR
                    1500                       MOVW  PA2,AX
*** ___________________________________________^
*** ERROR #A9 IN 1500 (Src\JC.asm, LINE 1500): SYNTAX ERROR
0D2E E520           1501                       MOV   A,PA0
*** ___________________________________________________^
*** WARNING #A52 IN 1501 (Src\JC.asm, LINE 1501): VALUE HAS BEEN TRUNCATED TO 8 BITS
0D30                1502                       MOV   X,A
*** _________________________________________________^
*** ERROR #A45 IN 1502 (Src\JC.asm, LINE 1502): UNDEFINED SYMBOL (PASS-2)
0D32 7464           1503                       MOV   A,#64H
                    1504                       MULU  X
*** ___________________________________________^
*** ERROR #A9 IN 1504 (Src\JC.asm, LINE 1504): SYNTAX ERROR
                    1505                       CMP   A,PA3
*** ___________________________________________^
*** ERROR #A9 IN 1505 (Src\JC.asm, LINE 1505): SYNTAX ERROR
                    1506                       BZ    $ACALV15A
*** ___________________________________________^
*** ERROR #A9 IN 1506 (Src\JC.asm, LINE 1506): SYNTAX ERROR
                    1507                       BNC   $ACALV15
*** ___________________________________________^
*** ERROR #A9 IN 1507 (Src\JC.asm, LINE 1507): SYNTAX ERROR
                    1508                       BC    $ACALV2
*** ___________________________________________^
*** ERROR #A9 IN 1508 (Src\JC.asm, LINE 1508): SYNTAX ERROR
0D34                1509     ACALV15A:
0D34                1510                   XCH       A,X
*** ___________________________________________________^
*** ERROR #A45 IN 1510 (Src\JC.asm, LINE 1510): UNDEFINED SYMBOL (PASS-2)
                    1511                       CMP   A,PA2
*** ___________________________________________^
*** ERROR #A9 IN 1511 (Src\JC.asm, LINE 1511): SYNTAX ERROR
0D36                1512                       XCH   A,X
*** ___________________________________________________^
*** ERROR #A45 IN 1512 (Src\JC.asm, LINE 1512): UNDEFINED SYMBOL (PASS-2)
                    1513                       BC    $ACALV2
*** ___________________________________________^
*** ERROR #A9 IN 1513 (Src\JC.asm, LINE 1513): SYNTAX ERROR
                    1514                       BZ    $ACALV2
*** ___________________________________________^
*** ERROR #A9 IN 1514 (Src\JC.asm, LINE 1514): SYNTAX ERROR
0D38                1515     ACALV15:
                    1516                   CMP       A,PA5
*** _______________________________________^
*** ERROR #A9 IN 1516 (Src\JC.asm, LINE 1516): SYNTAX ERROR
                    1517                   BZ        $ACALV2A
*** _______________________________________^
*** ERROR #A9 IN 1517 (Src\JC.asm, LINE 1517): SYNTAX ERROR
                    1518                       BC    $ACALV3
*** ___________________________________________^
*** ERROR #A9 IN 1518 (Src\JC.asm, LINE 1518): SYNTAX ERROR
                    1519                       BNC   $ACALV2
A51 MACRO ASSEMBLER  JC                                                                   12/18/2017 16:56:46 PAGE    54

*** ___________________________________________^
*** ERROR #A9 IN 1519 (Src\JC.asm, LINE 1519): SYNTAX ERROR
0D38                1520     ACALV2A:
0D38                1521                       XCH   A,X
*** ___________________________________________________^
*** ERROR #A45 IN 1521 (Src\JC.asm, LINE 1521): UNDEFINED SYMBOL (PASS-2)
                    1522                       CMP   A,R4
*** ___________________________________________^
*** ERROR #A9 IN 1522 (Src\JC.asm, LINE 1522): SYNTAX ERROR
0D3A                1523                       XCH   A,X
*** ___________________________________________________^
*** ERROR #A45 IN 1523 (Src\JC.asm, LINE 1523): UNDEFINED SYMBOL (PASS-2)
                    1524                       BC    $ACALV3
*** ___________________________________________^
*** ERROR #A9 IN 1524 (Src\JC.asm, LINE 1524): SYNTAX ERROR
0D3C                1525     ACALV2:   
0D3C 7401           1526                       MOV   A,#1
                    1527                       CMP   Y,#03H
*** ___________________________________________^
*** ERROR #A9 IN 1527 (Src\JC.asm, LINE 1527): SYNTAX ERROR
                    1528                       BC    $ACALV2S
*** ___________________________________________^
*** ERROR #A9 IN 1528 (Src\JC.asm, LINE 1528): SYNTAX ERROR
0D3E 152C           1529                       DEC   Y
*** _________________________________________________^
*** WARNING #A52 IN 1529 (Src\JC.asm, LINE 1529): VALUE HAS BEEN TRUNCATED TO 8 BITS
0D40 152C           1530                       DEC   Y
*** _________________________________________________^
*** WARNING #A52 IN 1530 (Src\JC.asm, LINE 1530): VALUE HAS BEEN TRUNCATED TO 8 BITS
0D42                1531     ACALV2S:
                    1532                       MOVW  HL,#YBUF
*** ___________________________________________^
*** ERROR #A9 IN 1532 (Src\JC.asm, LINE 1532): SYNTAX ERROR
0D42 E5CB           1533                       MOV   A,YPTR
*** ___________________________________________________^
*** WARNING #A52 IN 1533 (Src\JC.asm, LINE 1533): VALUE HAS BEEN TRUNCATED TO 8 BITS
0D44 F5F0           1534                       MOV   B,A
0D46 E52C           1535                       MOV   A,Y
*** ___________________________________________________^
*** WARNING #A52 IN 1535 (Src\JC.asm, LINE 1535): VALUE HAS BEEN TRUNCATED TO 8 BITS
0D48                1536                       MOV   [HL+B],A
*** _________________________________________________^
*** __________________________________________________^
*** ______________________________________________________^
*** ERROR #A9 IN 1536 (Src\JC.asm, LINE 1536): SYNTAX ERROR
*** ERROR #A9 IN 1536 (Src\JC.asm, LINE 1536): SYNTAX ERROR
*** ERROR #A9 IN 1536 (Src\JC.asm, LINE 1536): SYNTAX ERROR
0D48 05CB           1537                       INC   YPTR
*** _________________________________________________^
*** WARNING #A52 IN 1537 (Src\JC.asm, LINE 1537): VALUE HAS BEEN TRUNCATED TO 8 BITS
0D4A 22             1538                       RET
0D4B                1539     ACALV3:
                    1540               CMP   PA1,#0
*** ___________________________________^
*** ERROR #A9 IN 1540 (Src\JC.asm, LINE 1540): SYNTAX ERROR
                    1541               BZ    $ACALV3S
*** ___________________________________^
*** ERROR #A9 IN 1541 (Src\JC.asm, LINE 1541): SYNTAX ERROR
0D4B 7520FF         1542               MOV   PA0,#0FFH
*** _________________________________________^
*** WARNING #A52 IN 1542 (Src\JC.asm, LINE 1542): VALUE HAS BEEN TRUNCATED TO 8 BITS
0D4E                1543     ACALV3S:
0D4E E520           1544                   MOV       A,PA0
*** ___________________________________________________^
*** WARNING #A52 IN 1544 (Src\JC.asm, LINE 1544): VALUE HAS BEEN TRUNCATED TO 8 BITS
0D50                1545                   MOV       X,A
A51 MACRO ASSEMBLER  JC                                                                   12/18/2017 16:56:46 PAGE    55

*** _________________________________________________^
*** ERROR #A45 IN 1545 (Src\JC.asm, LINE 1545): UNDEFINED SYMBOL (PASS-2)
0D52 7405           1546                   MOV       A,#5
                    1547                       MULU  X
*** ___________________________________________^
*** ERROR #A9 IN 1547 (Src\JC.asm, LINE 1547): SYNTAX ERROR
                    1548                       MOVW  PA0,AX
*** ___________________________________________^
*** ERROR #A9 IN 1548 (Src\JC.asm, LINE 1548): SYNTAX ERROR
0D54 E54F           1549                       MOV   A,VAVG
*** ___________________________________________________^
*** WARNING #A52 IN 1549 (Src\JC.asm, LINE 1549): VALUE HAS BEEN TRUNCATED TO 8 BITS
0D56                1550                       MOV   X,A
*** _________________________________________________^
*** ERROR #A45 IN 1550 (Src\JC.asm, LINE 1550): UNDEFINED SYMBOL (PASS-2)
0D58 7403           1551                       MOV   A,#3
                    1552                       MULU  X
*** ___________________________________________^
*** ERROR #A9 IN 1552 (Src\JC.asm, LINE 1552): SYNTAX ERROR
0D5A                1553                       XCH   A,X
*** ___________________________________________________^
*** ERROR #A45 IN 1553 (Src\JC.asm, LINE 1553): UNDEFINED SYMBOL (PASS-2)
0D5C 2520           1554                       ADD   A,PA0
*** ___________________________________________________^
*** WARNING #A52 IN 1554 (Src\JC.asm, LINE 1554): VALUE HAS BEEN TRUNCATED TO 8 BITS
0D5E F520           1555                       MOV   PA0,A
*** _________________________________________________^
*** WARNING #A52 IN 1555 (Src\JC.asm, LINE 1555): VALUE HAS BEEN TRUNCATED TO 8 BITS
0D60                1556                       XCH   A,X
*** ___________________________________________________^
*** ERROR #A45 IN 1556 (Src\JC.asm, LINE 1556): UNDEFINED SYMBOL (PASS-2)
0D62 3521           1557                       ADDC  A,PA1
*** ___________________________________________________^
*** WARNING #A52 IN 1557 (Src\JC.asm, LINE 1557): VALUE HAS BEEN TRUNCATED TO 8 BITS
0D64 F521           1558                       MOV   PA1,A
*** _________________________________________________^
*** WARNING #A52 IN 1558 (Src\JC.asm, LINE 1558): VALUE HAS BEEN TRUNCATED TO 8 BITS
0D66 752200         1559                       MOV   PA2,#0
*** _________________________________________________^
*** WARNING #A52 IN 1559 (Src\JC.asm, LINE 1559): VALUE HAS BEEN TRUNCATED TO 8 BITS
0D69 752300         1560                       MOV   PA3,#0
*** _________________________________________________^
*** WARNING #A52 IN 1560 (Src\JC.asm, LINE 1560): VALUE HAS BEEN TRUNCATED TO 8 BITS
0D6C 752408         1561                       MOV   PA4,#8
*** _________________________________________________^
*** WARNING #A52 IN 1561 (Src\JC.asm, LINE 1561): VALUE HAS BEEN TRUNCATED TO 8 BITS
0D6F 752500         1562                       MOV   PA5,#0
*** _________________________________________________^
*** WARNING #A52 IN 1562 (Src\JC.asm, LINE 1562): VALUE HAS BEEN TRUNCATED TO 8 BITS
0D72                1563                       CALL  !UDIV
*** _________________________________________________^
*** __________________________________________________^
*** ERROR #A9 IN 1563 (Src\JC.asm, LINE 1563): SYNTAX ERROR
*** ERROR #A9 IN 1563 (Src\JC.asm, LINE 1563): SYNTAX ERROR
0D72 E520           1564                       MOV   A,PA0
*** ___________________________________________________^
*** WARNING #A52 IN 1564 (Src\JC.asm, LINE 1564): VALUE HAS BEEN TRUNCATED TO 8 BITS
                    1565                       CMP   A,VAVG
*** ___________________________________________^
*** ERROR #A9 IN 1565 (Src\JC.asm, LINE 1565): SYNTAX ERROR
                    1566                      ; BNC  $AAAAAA
                    1567     
0D74 E520           1568                       MOV   A,PA0
*** ___________________________________________________^
*** WARNING #A52 IN 1568 (Src\JC.asm, LINE 1568): VALUE HAS BEEN TRUNCATED TO 8 BITS
0D76 F54F           1569                      MOV    VAVG,A
A51 MACRO ASSEMBLER  JC                                                                   12/18/2017 16:56:46 PAGE    56

*** _________________________________________________^
*** WARNING #A52 IN 1569 (Src\JC.asm, LINE 1569): VALUE HAS BEEN TRUNCATED TO 8 BITS
                    1570     
0D78                1571                       CALL  !CALY
*** _________________________________________________^
*** __________________________________________________^
*** ERROR #A9 IN 1571 (Src\JC.asm, LINE 1571): SYNTAX ERROR
*** ERROR #A9 IN 1571 (Src\JC.asm, LINE 1571): SYNTAX ERROR
                    1572                       MOVW  HL,#YBUF
*** ___________________________________________^
*** ERROR #A9 IN 1572 (Src\JC.asm, LINE 1572): SYNTAX ERROR
0D78 E5CB           1573                       MOV   A,YPTR
*** ___________________________________________________^
*** WARNING #A52 IN 1573 (Src\JC.asm, LINE 1573): VALUE HAS BEEN TRUNCATED TO 8 BITS
0D7A F5F0           1574                       MOV   B,A
0D7C E52C           1575                       MOV   A,Y
*** ___________________________________________________^
*** WARNING #A52 IN 1575 (Src\JC.asm, LINE 1575): VALUE HAS BEEN TRUNCATED TO 8 BITS
0D7E                1576                       MOV   [HL+B],A
*** _________________________________________________^
*** __________________________________________________^
*** ______________________________________________________^
*** ERROR #A9 IN 1576 (Src\JC.asm, LINE 1576): SYNTAX ERROR
*** ERROR #A9 IN 1576 (Src\JC.asm, LINE 1576): SYNTAX ERROR
*** ERROR #A9 IN 1576 (Src\JC.asm, LINE 1576): SYNTAX ERROR
0D7E 05CB           1577                       INC   YPTR
*** _________________________________________________^
*** WARNING #A52 IN 1577 (Src\JC.asm, LINE 1577): VALUE HAS BEEN TRUNCATED TO 8 BITS
0D80 22             1578                       RET
0D81                1579     AAAAAA:
                    1580              ; MOV  A,Y
                    1581               ;DEC  A
                    1582               ;MOV  Y,A
0D81 22             1583               RET
0D82                1584     VPARL:
0D82 32322D         1585               DB    32H,32H,2DH
0D85                1586     VPARH:
0D85 968787         1587               DB    96H,87H,87H
                    1588     ;*=======斜率阈值计算=============
                    1589     ;*占用变量: A,X
                    1590     ;*?用变量: VAVG,Y
                    1591     ;*作用: 依据VAVG求出Y
0D88                1592     CALY:
                    1593               CMP   VAVG,#8
*** ___________________________________^
*** ERROR #A9 IN 1593 (Src\JC.asm, LINE 1593): SYNTAX ERROR
                    1594               BNC   $CALY4
*** ___________________________________^
*** ERROR #A9 IN 1594 (Src\JC.asm, LINE 1594): SYNTAX ERROR
0D88 752C00         1595               MOV   Y,#0
*** _________________________________________^
*** WARNING #A52 IN 1595 (Src\JC.asm, LINE 1595): VALUE HAS BEEN TRUNCATED TO 8 BITS
0D8B 22             1596               RET 
0D8C                1597     CALY4:
                    1598               CMP   Y,#060H
*** ___________________________________^
*** ERROR #A9 IN 1598 (Src\JC.asm, LINE 1598): SYNTAX ERROR
                    1599                       BC    $CALY5
*** ___________________________________________^
*** ERROR #A9 IN 1599 (Src\JC.asm, LINE 1599): SYNTAX ERROR
0D8C 752C00         1600                       MOV   Y,#0
*** _________________________________________________^
*** WARNING #A52 IN 1600 (Src\JC.asm, LINE 1600): VALUE HAS BEEN TRUNCATED TO 8 BITS
0D8F 22             1601                   RET
0D90                1602     CALY5:
0D90 E54F           1603                       MOV   A,VAVG
A51 MACRO ASSEMBLER  JC                                                                   12/18/2017 16:56:46 PAGE    57

*** ___________________________________________________^
*** WARNING #A52 IN 1603 (Src\JC.asm, LINE 1603): VALUE HAS BEEN TRUNCATED TO 8 BITS
0D92                1604                       MOV   X,A
*** _________________________________________________^
*** ERROR #A45 IN 1604 (Src\JC.asm, LINE 1604): UNDEFINED SYMBOL (PASS-2)
0D94 7400           1605                   MOV       A,#0
0D96                1606                       MOV   C,#16
*** _________________________________________________^
*** ERROR #A40 IN 1606 (Src\JC.asm, LINE 1606): INVALID REGISTER
                    1607                       DIVUW C
*** ___________________________________________^
*** ERROR #A9 IN 1607 (Src\JC.asm, LINE 1607): SYNTAX ERROR
0D96                1608                       MOV   A,C
*** ___________________________________________________^
*** ERROR #A40 IN 1608 (Src\JC.asm, LINE 1608): INVALID REGISTER
                    1609                       CMP   A,#8
*** ___________________________________________^
*** ERROR #A9 IN 1609 (Src\JC.asm, LINE 1609): SYNTAX ERROR
                    1610                   BC        $CALY1
*** _______________________________________^
*** ERROR #A9 IN 1610 (Src\JC.asm, LINE 1610): SYNTAX ERROR
0D96                1611                   INC       X
*** _________________________________________________^
*** ERROR #A45 IN 1611 (Src\JC.asm, LINE 1611): UNDEFINED SYMBOL (PASS-2)
0D98                1612     CALY1:          
0D98                1613                       MOV   A,X
*** ___________________________________________________^
*** ERROR #A45 IN 1613 (Src\JC.asm, LINE 1613): UNDEFINED SYMBOL (PASS-2)
0D9A 14             1614                       DEC   A
0D9B                1615                       MOV   X,#56         ;85
*** _________________________________________________^
*** ERROR #A45 IN 1615 (Src\JC.asm, LINE 1615): UNDEFINED SYMBOL (PASS-2)
                    1616                       MULU  X
*** ___________________________________________^
*** ERROR #A9 IN 1616 (Src\JC.asm, LINE 1616): SYNTAX ERROR
0D9E                1617                       MOV   C,#100
*** _________________________________________________^
*** ERROR #A40 IN 1617 (Src\JC.asm, LINE 1617): INVALID REGISTER
                    1618                       DIVUW C
*** ___________________________________________^
*** ERROR #A9 IN 1618 (Src\JC.asm, LINE 1618): SYNTAX ERROR
0D9E                1619                       MOV   A,C
*** ___________________________________________________^
*** ERROR #A40 IN 1619 (Src\JC.asm, LINE 1619): INVALID REGISTER
                    1620                       CMP   A,#50
*** ___________________________________________^
*** ERROR #A9 IN 1620 (Src\JC.asm, LINE 1620): SYNTAX ERROR
                    1621                       BC    $CALY2
*** ___________________________________________^
*** ERROR #A9 IN 1621 (Src\JC.asm, LINE 1621): SYNTAX ERROR
0D9E                1622                       INC   X
*** _________________________________________________^
*** ERROR #A45 IN 1622 (Src\JC.asm, LINE 1622): UNDEFINED SYMBOL (PASS-2)
0DA0                1623     CALY2:
0DA0                1624                       XCH   A,X
*** ___________________________________________________^
*** ERROR #A45 IN 1624 (Src\JC.asm, LINE 1624): UNDEFINED SYMBOL (PASS-2)
0DA2 F52C           1625                       MOV   Y,A
*** _________________________________________________^
*** WARNING #A52 IN 1625 (Src\JC.asm, LINE 1625): VALUE HAS BEEN TRUNCATED TO 8 BITS
0DA4 22             1626                       RET
                    1627     ;************************************************************************************
0DA5                1628     BPCMPB:
0DA5 F522           1629                   MOV       PA2,A
*** _________________________________________________^
*** WARNING #A52 IN 1629 (Src\JC.asm, LINE 1629): VALUE HAS BEEN TRUNCATED TO 8 BITS
A51 MACRO ASSEMBLER  JC                                                                   12/18/2017 16:56:46 PAGE    58

0DA7 7400           1630               MOV   A,#0
                    1631               ADDW  AX,#BPDATAV
*** ___________________________________^
*** ERROR #A9 IN 1631 (Src\JC.asm, LINE 1631): SYNTAX ERROR
                    1632               MOVW  HL,AX
*** ___________________________________^
*** ERROR #A9 IN 1632 (Src\JC.asm, LINE 1632): SYNTAX ERROR
0DA9                1633               MOV   A,[HL]
*** ___________________________________________^
*** ____________________________________________^
*** ______________________________________________^
*** ERROR #A9 IN 1633 (Src\JC.asm, LINE 1633): SYNTAX ERROR
*** ERROR #A9 IN 1633 (Src\JC.asm, LINE 1633): SYNTAX ERROR
*** ERROR #A9 IN 1633 (Src\JC.asm, LINE 1633): SYNTAX ERROR
0DA9                1634               MOV   X,A
*** _________________________________________^
*** ERROR #A45 IN 1634 (Src\JC.asm, LINE 1634): UNDEFINED SYMBOL (PASS-2)
0DAB 7464           1635               MOV   A,#64H
                    1636               MULU  X
*** ___________________________________^
*** ERROR #A9 IN 1636 (Src\JC.asm, LINE 1636): SYNTAX ERROR
                    1637               MOVW  PA0,AX
*** ___________________________________^
*** ERROR #A9 IN 1637 (Src\JC.asm, LINE 1637): SYNTAX ERROR
                    1638     ;---------------------modify_19_05-------------------------
0DAD                1639               CALL  !LDMAXVP          
*** _________________________________________^
*** __________________________________________^
*** ERROR #A9 IN 1639 (Src\JC.asm, LINE 1639): SYNTAX ERROR
*** ERROR #A9 IN 1639 (Src\JC.asm, LINE 1639): SYNTAX ERROR
                    1640     ;---------------------modify_19_05-------------------------
0DAD                1641               MOV   X,A
*** _________________________________________^
*** ERROR #A45 IN 1641 (Src\JC.asm, LINE 1641): UNDEFINED SYMBOL (PASS-2)
0DAF E522           1642               MOV   A,PA2
*** ___________________________________________^
*** WARNING #A52 IN 1642 (Src\JC.asm, LINE 1642): VALUE HAS BEEN TRUNCATED TO 8 BITS
                    1643               MULU  X
*** ___________________________________^
*** ERROR #A9 IN 1643 (Src\JC.asm, LINE 1643): SYNTAX ERROR
                    1644               MOVW  PA2,AX
*** ___________________________________^
*** ERROR #A9 IN 1644 (Src\JC.asm, LINE 1644): SYNTAX ERROR
0DB1 E521           1645               MOV   A,PA1
*** ___________________________________________^
*** WARNING #A52 IN 1645 (Src\JC.asm, LINE 1645): VALUE HAS BEEN TRUNCATED TO 8 BITS
                    1646               CMP   A,PA3
*** ___________________________________^
*** ERROR #A9 IN 1646 (Src\JC.asm, LINE 1646): SYNTAX ERROR
                    1647               BZ    $BPCMPBA
*** ___________________________________^
*** ERROR #A9 IN 1647 (Src\JC.asm, LINE 1647): SYNTAX ERROR
                    1648               BC    $BPCMPB3
*** ___________________________________^
*** ERROR #A9 IN 1648 (Src\JC.asm, LINE 1648): SYNTAX ERROR
                    1649               BNC   $BPCMPB1
*** ___________________________________^
*** ERROR #A9 IN 1649 (Src\JC.asm, LINE 1649): SYNTAX ERROR
0DB3                1650     BPCMPBA:
0DB3 E520           1651               MOV   A,PA0
*** ___________________________________________^
*** WARNING #A52 IN 1651 (Src\JC.asm, LINE 1651): VALUE HAS BEEN TRUNCATED TO 8 BITS
                    1652               CMP   A,PA2
*** ___________________________________^
*** ERROR #A9 IN 1652 (Src\JC.asm, LINE 1652): SYNTAX ERROR
                    1653               BZ    $BPCMPB2
A51 MACRO ASSEMBLER  JC                                                                   12/18/2017 16:56:46 PAGE    59

*** ___________________________________^
*** ERROR #A9 IN 1653 (Src\JC.asm, LINE 1653): SYNTAX ERROR
                    1654               BC    $BPCMPB3
*** ___________________________________^
*** ERROR #A9 IN 1654 (Src\JC.asm, LINE 1654): SYNTAX ERROR
0DB5                1655     BPCMPB1:
0DB5 7401           1656               MOV   A,#1
0DB7 22             1657               RET
0DB8                1658     BPCMPB2:  
0DB8 7400           1659                       MOV   A,#0H
0DBA 22             1660                   RET
0DBB                1661     BPCMPB3:
0DBB 74FF           1662               MOV   A,#0FFH
0DBD 22             1663               RET
                    1664     ;**************************************************************************************
                    1665     
                    1666     ;************************************************************************************
0DBE                1667     BUFCMP:   
0DBE E520           1668                       MOV   A,PA0
*** ___________________________________________________^
*** WARNING #A52 IN 1668 (Src\JC.asm, LINE 1668): VALUE HAS BEEN TRUNCATED TO 8 BITS
0DC0                1669                       XCH   A,X
*** ___________________________________________________^
*** ERROR #A45 IN 1669 (Src\JC.asm, LINE 1669): UNDEFINED SYMBOL (PASS-2)
0DC2 7400           1670                       MOV   A,#0
                    1671                       ADDW  AX,#BUFL
*** ___________________________________________^
*** ERROR #A9 IN 1671 (Src\JC.asm, LINE 1671): SYNTAX ERROR
                    1672                       MOVW  HL,AX
*** ___________________________________________^
*** ERROR #A9 IN 1672 (Src\JC.asm, LINE 1672): SYNTAX ERROR
0DC4                1673               MOV   A,[HL]
*** ___________________________________________^
*** ____________________________________________^
*** ______________________________________________^
*** ERROR #A9 IN 1673 (Src\JC.asm, LINE 1673): SYNTAX ERROR
*** ERROR #A9 IN 1673 (Src\JC.asm, LINE 1673): SYNTAX ERROR
*** ERROR #A9 IN 1673 (Src\JC.asm, LINE 1673): SYNTAX ERROR
0DC4 2522           1674               ADD   A,PA2
*** ___________________________________________^
*** WARNING #A52 IN 1674 (Src\JC.asm, LINE 1674): VALUE HAS BEEN TRUNCATED TO 8 BITS
0DC6 F520           1675               MOV   PA0,A
*** _________________________________________^
*** WARNING #A52 IN 1675 (Src\JC.asm, LINE 1675): VALUE HAS BEEN TRUNCATED TO 8 BITS
0DC8                1676               MOV   A,[HL+6]
*** ___________________________________________^
*** ____________________________________________^
*** ________________________________________________^
*** ERROR #A9 IN 1676 (Src\JC.asm, LINE 1676): SYNTAX ERROR
*** ERROR #A9 IN 1676 (Src\JC.asm, LINE 1676): SYNTAX ERROR
*** ERROR #A9 IN 1676 (Src\JC.asm, LINE 1676): SYNTAX ERROR
0DC8 3400           1677               ADDC  A,#0
0DCA F523           1678               MOV   PA3,A
*** _________________________________________^
*** WARNING #A52 IN 1678 (Src\JC.asm, LINE 1678): VALUE HAS BEEN TRUNCATED TO 8 BITS
0DCC E521           1679               MOV   A,PA1
*** ___________________________________________^
*** WARNING #A52 IN 1679 (Src\JC.asm, LINE 1679): VALUE HAS BEEN TRUNCATED TO 8 BITS
0DCE                1680               XCH     A,X
*** _____________________________________________^
*** ERROR #A45 IN 1680 (Src\JC.asm, LINE 1680): UNDEFINED SYMBOL (PASS-2)
0DD0 7400           1681               MOV   A,#0
                    1682               ADDW  AX,#BUFL
*** ___________________________________^
*** ERROR #A9 IN 1682 (Src\JC.asm, LINE 1682): SYNTAX ERROR
                    1683               MOVW  HL,AX
A51 MACRO ASSEMBLER  JC                                                                   12/18/2017 16:56:46 PAGE    60

*** ___________________________________^
*** ERROR #A9 IN 1683 (Src\JC.asm, LINE 1683): SYNTAX ERROR
0DD2 E523           1684               MOV   A,PA3
*** ___________________________________________^
*** WARNING #A52 IN 1684 (Src\JC.asm, LINE 1684): VALUE HAS BEEN TRUNCATED TO 8 BITS
                    1685               CMP   A,[HL+6]
*** ___________________________________^
*** ___________________________________________^
*** ________________________________________________^
*** ERROR #A9 IN 1685 (Src\JC.asm, LINE 1685): SYNTAX ERROR
*** ERROR #A3 IN 1685 (Src\JC.asm, LINE 1685): ILLEGAL CHARACTER
*** ERROR #A3 IN 1685 (Src\JC.asm, LINE 1685): ILLEGAL CHARACTER
                    1686               BZ    $BUFCMP0
*** ___________________________________^
*** ERROR #A9 IN 1686 (Src\JC.asm, LINE 1686): SYNTAX ERROR
                    1687               BNC   $BUFCMP1
*** ___________________________________^
*** ERROR #A9 IN 1687 (Src\JC.asm, LINE 1687): SYNTAX ERROR
                    1688               BC    $BUFCMP2
*** ___________________________________^
*** ERROR #A9 IN 1688 (Src\JC.asm, LINE 1688): SYNTAX ERROR
0DD4                1689     BUFCMP0:          
0DD4 E520           1690                       MOV   A,PA0
*** ___________________________________________________^
*** WARNING #A52 IN 1690 (Src\JC.asm, LINE 1690): VALUE HAS BEEN TRUNCATED TO 8 BITS
                    1691               CMP   A,[HL]
*** ___________________________________^
*** ___________________________________________^
*** ______________________________________________^
*** ERROR #A9 IN 1691 (Src\JC.asm, LINE 1691): SYNTAX ERROR
*** ERROR #A3 IN 1691 (Src\JC.asm, LINE 1691): ILLEGAL CHARACTER
*** ERROR #A3 IN 1691 (Src\JC.asm, LINE 1691): ILLEGAL CHARACTER
                    1692               BZ    $BUFCMP0A
*** ___________________________________^
*** ERROR #A9 IN 1692 (Src\JC.asm, LINE 1692): SYNTAX ERROR
                    1693               BNC   $BUFCMP1
*** ___________________________________^
*** ERROR #A9 IN 1693 (Src\JC.asm, LINE 1693): SYNTAX ERROR
                    1694               BC    $BUFCMP2
*** ___________________________________^
*** ERROR #A9 IN 1694 (Src\JC.asm, LINE 1694): SYNTAX ERROR
0DD6                1695     BUFCMP0A:
0DD6 7400           1696               MOV   A,#0
0DD8 22             1697               RET
0DD9                1698     BUFCMP1:
0DD9 7401           1699                   MOV       A,#1
0DDB 22             1700               RET
0DDC                1701     BUFCMP2:
0DDC 74FF           1702                       MOV   A,#0FFH
0DDE 22             1703               RET
                    1704     ;************************************************************************************
                    1705     ;************************************************************************************
0DDF                1706     DPEAK:     
0DDF 7400           1707                       MOV   A,#0
0DE1                1708               CALL  !LDOPTRA
*** _________________________________________^
*** __________________________________________^
*** ERROR #A9 IN 1708 (Src\JC.asm, LINE 1708): SYNTAX ERROR
*** ERROR #A9 IN 1708 (Src\JC.asm, LINE 1708): SYNTAX ERROR
                    1709               MOVW  PA2,AX
*** ___________________________________^
*** ERROR #A9 IN 1709 (Src\JC.asm, LINE 1709): SYNTAX ERROR
0DE1 E544           1710               MOV   A,COUNT       
*** ___________________________________________^
*** WARNING #A52 IN 1710 (Src\JC.asm, LINE 1710): VALUE HAS BEEN TRUNCATED TO 8 BITS
                    1711               SUB   A,COUNT1      
A51 MACRO ASSEMBLER  JC                                                                   12/18/2017 16:56:46 PAGE    61

*** ___________________________________^
*** ERROR #A9 IN 1711 (Src\JC.asm, LINE 1711): SYNTAX ERROR
0DE3                1712               MOV   X,A
*** _________________________________________^
*** ERROR #A45 IN 1712 (Src\JC.asm, LINE 1712): UNDEFINED SYMBOL (PASS-2)
0DE5 E52C           1713               MOV   A,Y
*** ___________________________________________^
*** WARNING #A52 IN 1713 (Src\JC.asm, LINE 1713): VALUE HAS BEEN TRUNCATED TO 8 BITS
                    1714                       MULU  X
*** ___________________________________________^
*** ERROR #A9 IN 1714 (Src\JC.asm, LINE 1714): SYNTAX ERROR
0DE7                1715               MOV   A,X
*** ___________________________________________^
*** ERROR #A45 IN 1715 (Src\JC.asm, LINE 1715): UNDEFINED SYMBOL (PASS-2)
0DE9 2520           1716               ADD   A,PA0
*** ___________________________________________^
*** WARNING #A52 IN 1716 (Src\JC.asm, LINE 1716): VALUE HAS BEEN TRUNCATED TO 8 BITS
0DEB F520           1717               MOV   PA0,A
*** _________________________________________^
*** WARNING #A52 IN 1717 (Src\JC.asm, LINE 1717): VALUE HAS BEEN TRUNCATED TO 8 BITS
0DED E521           1718               MOV   A,PA1
*** ___________________________________________^
*** WARNING #A52 IN 1718 (Src\JC.asm, LINE 1718): VALUE HAS BEEN TRUNCATED TO 8 BITS
0DEF 3400           1719               ADDC  A,#0
0DF1 F521           1720               MOV   PA1,A
*** _________________________________________^
*** WARNING #A52 IN 1720 (Src\JC.asm, LINE 1720): VALUE HAS BEEN TRUNCATED TO 8 BITS
0DF3 E520           1721               MOV   A,PA0
*** ___________________________________________^
*** WARNING #A52 IN 1721 (Src\JC.asm, LINE 1721): VALUE HAS BEEN TRUNCATED TO 8 BITS
                    1722               SUB   A,PEAKPL
*** ___________________________________^
*** ERROR #A9 IN 1722 (Src\JC.asm, LINE 1722): SYNTAX ERROR
0DF5 E521           1723               MOV   A,PA1
*** ___________________________________________^
*** WARNING #A52 IN 1723 (Src\JC.asm, LINE 1723): VALUE HAS BEEN TRUNCATED TO 8 BITS
                    1724               SUBC  A,PEAKPH
*** ___________________________________^
*** ERROR #A9 IN 1724 (Src\JC.asm, LINE 1724): SYNTAX ERROR
                    1725               BC    $DPEAK2      
*** ___________________________________^
*** ERROR #A9 IN 1725 (Src\JC.asm, LINE 1725): SYNTAX ERROR
0DF7                1726     DPEAK1:   
0DF7 E544           1727                       MOV   A,COUNT
*** ___________________________________________________^
*** WARNING #A52 IN 1727 (Src\JC.asm, LINE 1727): VALUE HAS BEEN TRUNCATED TO 8 BITS
0DF9 F545           1728                       MOV   COUNT1,A ;
*** _________________________________________________^
*** WARNING #A52 IN 1728 (Src\JC.asm, LINE 1728): VALUE HAS BEEN TRUNCATED TO 8 BITS
                    1729               MOVW  AX,PA2
*** ___________________________________^
*** ERROR #A9 IN 1729 (Src\JC.asm, LINE 1729): SYNTAX ERROR
                    1730               MOVW  PEAKPL,AX ;
*** ___________________________________^
*** ERROR #A9 IN 1730 (Src\JC.asm, LINE 1730): SYNTAX ERROR
0DFB                1731     DPEAK2:
                    1732               CMP   COUNT,#15
*** ___________________________________^
*** ERROR #A9 IN 1732 (Src\JC.asm, LINE 1732): SYNTAX ERROR
                    1733               BC    $DPEAK3       ;
*** ___________________________________^
*** ERROR #A9 IN 1733 (Src\JC.asm, LINE 1733): SYNTAX ERROR
0DFB E544           1734               MOV   A,COUNT
*** ___________________________________________^
*** WARNING #A52 IN 1734 (Src\JC.asm, LINE 1734): VALUE HAS BEEN TRUNCATED TO 8 BITS
                    1735               SUB   A,COUNT1
A51 MACRO ASSEMBLER  JC                                                                   12/18/2017 16:56:46 PAGE    62

*** ___________________________________^
*** ERROR #A9 IN 1735 (Src\JC.asm, LINE 1735): SYNTAX ERROR
                    1736               CMP   A,#6
*** ___________________________________^
*** ERROR #A9 IN 1736 (Src\JC.asm, LINE 1736): SYNTAX ERROR
                    1737               BNC   $DPEAK4       ;
*** ___________________________________^
*** ERROR #A9 IN 1737 (Src\JC.asm, LINE 1737): SYNTAX ERROR
0DFD                1738     DPEAK3:                 
0DFD 7400           1739               MOV   A,#0
0DFF 22             1740               RET
0E00                1741     DPEAK4:   
0E00 7401           1742                       MOV   A,#1          ;
0E02 22             1743               RET
                    1744     ;************************************************************************************
0E03                1745     ABS1:
0E03                1746                             XCH     A,X
*** ___________________________________________________________^
*** ERROR #A45 IN 1746 (Src\JC.asm, LINE 1746): UNDEFINED SYMBOL (PASS-2)
0E05 7400           1747                             MOV     A,#0
                    1748                             SUB     A,X
*** _________________________________________________^
*** ERROR #A9 IN 1748 (Src\JC.asm, LINE 1748): SYNTAX ERROR
0E07 22             1749                             RET
                    1750     ;************************************************************************************
0E08                1751     CALHR:          
0E08 753505         1752                        MOV  MAXH,#5
*** _________________________________________________^
*** WARNING #A52 IN 1752 (Src\JC.asm, LINE 1752): VALUE HAS BEEN TRUNCATED TO 8 BITS
0E0B                1753     CALHRZ:            
                    1754                        CMP  BPTR,#20H
*** ____________________________________________^
*** ERROR #A9 IN 1754 (Src\JC.asm, LINE 1754): SYNTAX ERROR
                    1755                        BC   $CALHR1C
*** ____________________________________________^
*** ERROR #A9 IN 1755 (Src\JC.asm, LINE 1755): SYNTAX ERROR
0E0B 754920         1756                        MOV  BPTR,#20H
*** _________________________________________________^
*** WARNING #A52 IN 1756 (Src\JC.asm, LINE 1756): VALUE HAS BEEN TRUNCATED TO 8 BITS
0E0E                1757     CALHR1C:        
0E0E E549           1758                        MOV  A,BPTR
*** ___________________________________________________^
*** WARNING #A52 IN 1758 (Src\JC.asm, LINE 1758): VALUE HAS BEEN TRUNCATED TO 8 BITS
0E10 F527           1759                        MOV  PA7,A
*** _________________________________________________^
*** WARNING #A52 IN 1759 (Src\JC.asm, LINE 1759): VALUE HAS BEEN TRUNCATED TO 8 BITS
                    1760                        SUB  A,#2
*** ____________________________________________^
*** ERROR #A9 IN 1760 (Src\JC.asm, LINE 1760): SYNTAX ERROR
0E12 F560           1761                        MOV  MAXVP,A
*** _________________________________________________^
*** WARNING #A52 IN 1761 (Src\JC.asm, LINE 1761): VALUE HAS BEEN TRUNCATED TO 8 BITS
                    1762                        MOVW DE,#HRBUF1
*** ____________________________________________^
*** ERROR #A9 IN 1762 (Src\JC.asm, LINE 1762): SYNTAX ERROR
                    1763                        MOVW HL,#HRBUF
*** ____________________________________________^
*** ERROR #A9 IN 1763 (Src\JC.asm, LINE 1763): SYNTAX ERROR
0E14 75F000         1764                        MOV  B,#0
0E17                1765     CALHR2C:
0E17                1766                        MOV  A,[HL+B]
*** ___________________________________________________^
*** ____________________________________________________^
*** ________________________________________________________^
*** ERROR #A9 IN 1766 (Src\JC.asm, LINE 1766): SYNTAX ERROR
*** ERROR #A9 IN 1766 (Src\JC.asm, LINE 1766): SYNTAX ERROR
A51 MACRO ASSEMBLER  JC                                                                   12/18/2017 16:56:46 PAGE    63

*** ERROR #A9 IN 1766 (Src\JC.asm, LINE 1766): SYNTAX ERROR
                    1767                        CMP  A,#15
*** ____________________________________________^
*** ERROR #A9 IN 1767 (Src\JC.asm, LINE 1767): SYNTAX ERROR
                    1768                        BNC  $CALHR2C_A
*** ____________________________________________^
*** ERROR #A9 IN 1768 (Src\JC.asm, LINE 1768): SYNTAX ERROR
0E17 0540           1769                        INC  H_HEART_C
*** _________________________________________________^
*** WARNING #A52 IN 1769 (Src\JC.asm, LINE 1769): VALUE HAS BEEN TRUNCATED TO 8 BITS
                    1770                        CMP  H_HEART_C,#5
*** ____________________________________________^
*** ERROR #A9 IN 1770 (Src\JC.asm, LINE 1770): SYNTAX ERROR
                    1771                        BC   $CALHR2C_A
*** ____________________________________________^
*** ERROR #A9 IN 1771 (Src\JC.asm, LINE 1771): SYNTAX ERROR
                    1772                        SET1 HRERR_1
*** ____________________________________________^
*** ERROR #A9 IN 1772 (Src\JC.asm, LINE 1772): SYNTAX ERROR
0E19                1773     CALHR2C_A:
0E19                1774                        MOV  [DE],A
*** _________________________________________________^
*** __________________________________________________^
*** ____________________________________________________^
*** ERROR #A9 IN 1774 (Src\JC.asm, LINE 1774): SYNTAX ERROR
*** ERROR #A9 IN 1774 (Src\JC.asm, LINE 1774): SYNTAX ERROR
*** ERROR #A9 IN 1774 (Src\JC.asm, LINE 1774): SYNTAX ERROR
                    1775                        INCW DE
*** ____________________________________________^
*** ERROR #A9 IN 1775 (Src\JC.asm, LINE 1775): SYNTAX ERROR
0E19 05F0           1776                        INC  B
0E1B E5F0           1777                        MOV  A,B
                    1778                        CMP  A,BPTR
*** ____________________________________________^
*** ERROR #A9 IN 1778 (Src\JC.asm, LINE 1778): SYNTAX ERROR
                    1779                        BZ   $CALHR3C
*** ____________________________________________^
*** ERROR #A9 IN 1779 (Src\JC.asm, LINE 1779): SYNTAX ERROR
                    1780                        BR   $CALHR2C
*** ____________________________________________^
*** ERROR #A9 IN 1780 (Src\JC.asm, LINE 1780): SYNTAX ERROR
                    1781     ;************************************************************************************
0E1D                1782     CALHR3C:
0E1D                1783     DATACH:
                    1784                        MOVW HL,#HRBUF1
*** ____________________________________________^
*** ERROR #A9 IN 1784 (Src\JC.asm, LINE 1784): SYNTAX ERROR
                    1785                        MOVW DE,#HRBUF1
*** ____________________________________________^
*** ERROR #A9 IN 1785 (Src\JC.asm, LINE 1785): SYNTAX ERROR
0E1D 75F000         1786                        MOV  B,#0
0E20 752000         1787                        MOV  PA0,#0
*** _________________________________________________^
*** WARNING #A52 IN 1787 (Src\JC.asm, LINE 1787): VALUE HAS BEEN TRUNCATED TO 8 BITS
0E23                1788     DATACH0:
0E23                1789                        MOV  A,[DE]
*** ___________________________________________________^
*** ____________________________________________________^
*** ______________________________________________________^
*** ERROR #A9 IN 1789 (Src\JC.asm, LINE 1789): SYNTAX ERROR
*** ERROR #A9 IN 1789 (Src\JC.asm, LINE 1789): SYNTAX ERROR
*** ERROR #A9 IN 1789 (Src\JC.asm, LINE 1789): SYNTAX ERROR
                    1790                        SUB  A,[HL+B]
*** ____________________________________________^
*** ___________________________________________________^
*** ________________________________________________________^
A51 MACRO ASSEMBLER  JC                                                                   12/18/2017 16:56:46 PAGE    64

*** ERROR #A9 IN 1790 (Src\JC.asm, LINE 1790): SYNTAX ERROR
*** ERROR #A3 IN 1790 (Src\JC.asm, LINE 1790): ILLEGAL CHARACTER
*** ERROR #A3 IN 1790 (Src\JC.asm, LINE 1790): ILLEGAL CHARACTER
                    1791                        BNC  $DATACH1
*** ____________________________________________^
*** ERROR #A9 IN 1791 (Src\JC.asm, LINE 1791): SYNTAX ERROR
0E23                1792                        CALL !ABS1
*** _________________________________________________^
*** __________________________________________________^
*** ERROR #A9 IN 1792 (Src\JC.asm, LINE 1792): SYNTAX ERROR
*** ERROR #A9 IN 1792 (Src\JC.asm, LINE 1792): SYNTAX ERROR
0E23                1793     DATACH1:
                    1794                        CMP  A,MAXH
*** ____________________________________________^
*** ERROR #A9 IN 1794 (Src\JC.asm, LINE 1794): SYNTAX ERROR
                    1795                        BNC  $DATACH2
*** ____________________________________________^
*** ERROR #A9 IN 1795 (Src\JC.asm, LINE 1795): SYNTAX ERROR
0E23 0520           1796                        INC  PA0
*** _________________________________________________^
*** WARNING #A52 IN 1796 (Src\JC.asm, LINE 1796): VALUE HAS BEEN TRUNCATED TO 8 BITS
0E25 0520           1797                        INC  PA0
*** _________________________________________________^
*** WARNING #A52 IN 1797 (Src\JC.asm, LINE 1797): VALUE HAS BEEN TRUNCATED TO 8 BITS
0E27                1798     DATACH2:
0E27 E520           1799                        MOV  A,PA0
*** ___________________________________________________^
*** WARNING #A52 IN 1799 (Src\JC.asm, LINE 1799): VALUE HAS BEEN TRUNCATED TO 8 BITS
                    1800                        CMP  A,BPTR
*** ____________________________________________^
*** ERROR #A9 IN 1800 (Src\JC.asm, LINE 1800): SYNTAX ERROR
                    1801                        BNC  $DATACH5
*** ____________________________________________^
*** ERROR #A9 IN 1801 (Src\JC.asm, LINE 1801): SYNTAX ERROR
0E29 E5F0           1802                        MOV  A,B
0E2B 04             1803                        INC  A
0E2C F5F0           1804                        MOV  B,A
                    1805                        CMP  A,BPTR
*** ____________________________________________^
*** ERROR #A9 IN 1805 (Src\JC.asm, LINE 1805): SYNTAX ERROR
                    1806                        BZ   $DATACH3
*** ____________________________________________^
*** ERROR #A9 IN 1806 (Src\JC.asm, LINE 1806): SYNTAX ERROR
                    1807                        BR   $DATACH0
*** ____________________________________________^
*** ERROR #A9 IN 1807 (Src\JC.asm, LINE 1807): SYNTAX ERROR
0E2E                1808     DATACH3:
0E2E 7400           1809                        MOV  A,#0
0E30                1810                        MOV  [DE],A
*** _________________________________________________^
*** __________________________________________________^
*** ____________________________________________________^
*** ERROR #A9 IN 1810 (Src\JC.asm, LINE 1810): SYNTAX ERROR
*** ERROR #A9 IN 1810 (Src\JC.asm, LINE 1810): SYNTAX ERROR
*** ERROR #A9 IN 1810 (Src\JC.asm, LINE 1810): SYNTAX ERROR
0E30                1811     DATACH5:
0E30 752000         1812                        MOV  PA0,#0
*** _________________________________________________^
*** WARNING #A52 IN 1812 (Src\JC.asm, LINE 1812): VALUE HAS BEEN TRUNCATED TO 8 BITS
0E33 75F000         1813                        MOV  B,#0
                    1814                        INCW DE
*** ____________________________________________^
*** ERROR #A9 IN 1814 (Src\JC.asm, LINE 1814): SYNTAX ERROR
                    1815                        MOVW AX,DE
*** ____________________________________________^
*** ERROR #A9 IN 1815 (Src\JC.asm, LINE 1815): SYNTAX ERROR
A51 MACRO ASSEMBLER  JC                                                                   12/18/2017 16:56:46 PAGE    65

                    1816                        CMPW AX,#0FD20H
*** ____________________________________________^
*** ERROR #A9 IN 1816 (Src\JC.asm, LINE 1816): SYNTAX ERROR
                    1817                        BZ   $DATACH4
*** ____________________________________________^
*** ERROR #A9 IN 1817 (Src\JC.asm, LINE 1817): SYNTAX ERROR
                    1818                        BR   $DATACH0
*** ____________________________________________^
*** ERROR #A9 IN 1818 (Src\JC.asm, LINE 1818): SYNTAX ERROR
                    1819                        
                    1820     ;************************************************************************************
0E36                1821     DATACH4:
0E36 75F000         1822                        MOV  B,#0
                    1823                MOVW HL,#HRBUF1
*** ____________________________________^
*** ERROR #A9 IN 1823 (Src\JC.asm, LINE 1823): SYNTAX ERROR
                    1824                MOVW AX,#0
*** ____________________________________^
*** ERROR #A9 IN 1824 (Src\JC.asm, LINE 1824): SYNTAX ERROR
                    1825                MOVW BATENL,AX
*** ____________________________________^
*** ERROR #A9 IN 1825 (Src\JC.asm, LINE 1825): SYNTAX ERROR
0E39 752400         1826                MOV  PA4,#0
*** _________________________________________^
*** WARNING #A52 IN 1826 (Src\JC.asm, LINE 1826): VALUE HAS BEEN TRUNCATED TO 8 BITS
0E3C                1827     BPADD:
                    1828                        
0E3C                1829                MOV  A,[HL+B]
*** ___________________________________________^
*** ____________________________________________^
*** ________________________________________________^
*** ERROR #A9 IN 1829 (Src\JC.asm, LINE 1829): SYNTAX ERROR
*** ERROR #A9 IN 1829 (Src\JC.asm, LINE 1829): SYNTAX ERROR
*** ERROR #A9 IN 1829 (Src\JC.asm, LINE 1829): SYNTAX ERROR
                    1830                CMP  A,#0
*** ____________________________________^
*** ERROR #A9 IN 1830 (Src\JC.asm, LINE 1830): SYNTAX ERROR
                    1831                BZ   $BPADD1
*** ____________________________________^
*** ERROR #A9 IN 1831 (Src\JC.asm, LINE 1831): SYNTAX ERROR
0E3C 0524           1832                INC  PA4
*** _________________________________________^
*** WARNING #A52 IN 1832 (Src\JC.asm, LINE 1832): VALUE HAS BEEN TRUNCATED TO 8 BITS
0E3E                1833     BPADD1:
0E3E 258C           1834                ADD  A,BATENL
*** ___________________________________________^
*** WARNING #A52 IN 1834 (Src\JC.asm, LINE 1834): VALUE HAS BEEN TRUNCATED TO 8 BITS
0E40 F58C           1835                MOV  BATENL,A
*** _________________________________________^
*** WARNING #A52 IN 1835 (Src\JC.asm, LINE 1835): VALUE HAS BEEN TRUNCATED TO 8 BITS
0E42 E58D           1836                MOV  A,BATENH
*** ___________________________________________^
*** WARNING #A52 IN 1836 (Src\JC.asm, LINE 1836): VALUE HAS BEEN TRUNCATED TO 8 BITS
0E44 3400           1837                ADDC A,#0
0E46 F58D           1838                MOV  BATENH,A
*** _________________________________________^
*** WARNING #A52 IN 1838 (Src\JC.asm, LINE 1838): VALUE HAS BEEN TRUNCATED TO 8 BITS
0E48 05F0           1839                INC  B
0E4A E5F0           1840                MOV  A,B
                    1841                CMP  A,BPTR
*** ____________________________________^
*** ERROR #A9 IN 1841 (Src\JC.asm, LINE 1841): SYNTAX ERROR
                    1842                BNZ  $BPADD
*** ____________________________________^
*** ERROR #A9 IN 1842 (Src\JC.asm, LINE 1842): SYNTAX ERROR
                    1843     ;************************************************************************************
A51 MACRO ASSEMBLER  JC                                                                   12/18/2017 16:56:46 PAGE    66

0E4C 7520B8         1844                        MOV  PA0,#0B8H
*** _________________________________________________^
*** WARNING #A52 IN 1844 (Src\JC.asm, LINE 1844): VALUE HAS BEEN TRUNCATED TO 8 BITS
0E4F 75210B         1845                        MOV  PA1,#0BH
*** _________________________________________________^
*** WARNING #A52 IN 1845 (Src\JC.asm, LINE 1845): VALUE HAS BEEN TRUNCATED TO 8 BITS
0E52 E524           1846                        MOV  A,PA4
*** ___________________________________________________^
*** WARNING #A52 IN 1846 (Src\JC.asm, LINE 1846): VALUE HAS BEEN TRUNCATED TO 8 BITS
                    1847                        CMP  A,#4
*** ____________________________________________^
*** ERROR #A9 IN 1847 (Src\JC.asm, LINE 1847): SYNTAX ERROR
                    1848                        BNC  $DATACH9
*** ____________________________________________^
*** ERROR #A9 IN 1848 (Src\JC.asm, LINE 1848): SYNTAX ERROR
0E54 0535           1849                        INC  MAXH
*** _________________________________________________^
*** WARNING #A52 IN 1849 (Src\JC.asm, LINE 1849): VALUE HAS BEEN TRUNCATED TO 8 BITS
                    1850     ;---------------------modify_22_04-------------------------
                    1851                        CMP  MAXH,#30
*** ____________________________________________^
*** ERROR #A9 IN 1851 (Src\JC.asm, LINE 1851): SYNTAX ERROR
                    1852                        BC   $DCH1            
*** ____________________________________________^
*** ERROR #A9 IN 1852 (Src\JC.asm, LINE 1852): SYNTAX ERROR
                    1853                        SET1 HRERR
*** ____________________________________________^
*** ERROR #A9 IN 1853 (Src\JC.asm, LINE 1853): SYNTAX ERROR
0E56 22             1854                        RET
0E57                1855             DCH1:                      
                    1856     ;---------------------modify_22_04-------------------------
                    1857                        BR   !CALHRZ
*** ____________________________________________^
*** _________________________________________________^
*** ERROR #A9 IN 1857 (Src\JC.asm, LINE 1857): SYNTAX ERROR
*** ERROR #A3 IN 1857 (Src\JC.asm, LINE 1857): ILLEGAL CHARACTER
0E57                1858     DATACH9:                   
0E57 F522           1859                        MOV  PA2,A
*** _________________________________________________^
*** WARNING #A52 IN 1859 (Src\JC.asm, LINE 1859): VALUE HAS BEEN TRUNCATED TO 8 BITS
0E59                1860                        CALL !UMUL
*** _________________________________________________^
*** __________________________________________________^
*** ERROR #A9 IN 1860 (Src\JC.asm, LINE 1860): SYNTAX ERROR
*** ERROR #A9 IN 1860 (Src\JC.asm, LINE 1860): SYNTAX ERROR
                    1861                        MOVW AX,BATENL
*** ____________________________________________^
*** ERROR #A9 IN 1861 (Src\JC.asm, LINE 1861): SYNTAX ERROR
                    1862                        MOVW PA4,AX
*** ____________________________________________^
*** ERROR #A9 IN 1862 (Src\JC.asm, LINE 1862): SYNTAX ERROR
                    1863     ;---------------------modify_22_05-------------------------
0E59 752300         1864                        MOV  PA3,#0
*** _________________________________________________^
*** WARNING #A52 IN 1864 (Src\JC.asm, LINE 1864): VALUE HAS BEEN TRUNCATED TO 8 BITS
0E5C                1865                CALL !UDIV
*** _________________________________________^
*** __________________________________________^
*** ERROR #A9 IN 1865 (Src\JC.asm, LINE 1865): SYNTAX ERROR
*** ERROR #A9 IN 1865 (Src\JC.asm, LINE 1865): SYNTAX ERROR
                    1866     ;---------------------modify_22_05-------------------------
0E5C E520           1867                MOV  A,PA0
*** ___________________________________________^
*** WARNING #A52 IN 1867 (Src\JC.asm, LINE 1867): VALUE HAS BEEN TRUNCATED TO 8 BITS
0E5E F587           1868                MOV  PHR,A
*** _________________________________________^
A51 MACRO ASSEMBLER  JC                                                                   12/18/2017 16:56:46 PAGE    67

*** WARNING #A52 IN 1868 (Src\JC.asm, LINE 1868): VALUE HAS BEEN TRUNCATED TO 8 BITS
                    1869     ;---------------------modify_16_04-------------------------
                    1870                ;MOVW        AX,BATENL
                    1871                ;MOV C,#2
                    1872                ;DIVUW C
                    1873                ;XCH A,X
                    1874                ;SUB A,PA2
                    1875                ;XCH A,X
                    1876                ;SUBC        A,PA3
                    1877                ;BNC $CALHRA
                    1878                ;INC PHR
                    1879     ;---------------------modify_16_04-------------------------
                    1880     ;************************************************************************************
0E60                1881     CALHRA:
0E60 E587           1882                        MOV          A,PHR
*** ___________________________________________________________^
*** WARNING #A52 IN 1882 (Src\JC.asm, LINE 1882): VALUE HAS BEEN TRUNCATED TO 8 BITS
0E62                1883                        MOV          C,A
*** _________________________________________________________^
*** ERROR #A40 IN 1883 (Src\JC.asm, LINE 1883): INVALID REGISTER
                    1884                        MOVW         AX,#3000
*** ____________________________________________^
*** ERROR #A9 IN 1884 (Src\JC.asm, LINE 1884): SYNTAX ERROR
                    1885                        DIVUW        C
*** ____________________________________________^
*** ERROR #A9 IN 1885 (Src\JC.asm, LINE 1885): SYNTAX ERROR
0E62                1886                        XCH          A,X
*** ___________________________________________________________^
*** ERROR #A45 IN 1886 (Src\JC.asm, LINE 1886): UNDEFINED SYMBOL (PASS-2)
0E64 F58C           1887                        MOV          BATENL,A
*** _________________________________________________________^
*** WARNING #A52 IN 1887 (Src\JC.asm, LINE 1887): VALUE HAS BEEN TRUNCATED TO 8 BITS
0E66                1888                        MOV          X,#25
*** _________________________________________________________^
*** ERROR #A45 IN 1888 (Src\JC.asm, LINE 1888): UNDEFINED SYMBOL (PASS-2)
                    1889                        MULU         X
*** ____________________________________________^
*** ERROR #A9 IN 1889 (Src\JC.asm, LINE 1889): SYNTAX ERROR
0E69                1890                        MOV          C,#100
*** _________________________________________________________^
*** ERROR #A40 IN 1890 (Src\JC.asm, LINE 1890): INVALID REGISTER
                    1891                        DIVUW        C
*** ____________________________________________^
*** ERROR #A9 IN 1891 (Src\JC.asm, LINE 1891): SYNTAX ERROR
0E69                1892                        XCH          A,X
*** ___________________________________________________________^
*** ERROR #A45 IN 1892 (Src\JC.asm, LINE 1892): UNDEFINED SYMBOL (PASS-2)
0E6B F58D           1893                        MOV          BATENH,A
*** _________________________________________________________^
*** WARNING #A52 IN 1893 (Src\JC.asm, LINE 1893): VALUE HAS BEEN TRUNCATED TO 8 BITS
0E6D 752400         1894                        MOV  PA4,#0
*** _________________________________________________^
*** WARNING #A52 IN 1894 (Src\JC.asm, LINE 1894): VALUE HAS BEEN TRUNCATED TO 8 BITS
                    1895                        
                    1896     ;计算心率标准间隔
                    1897     
0E70                1898     CALIHB:
0E70 75F001         1899                        MOV  B,#1
                    1900                        MOVW HL,#HRBUF
*** ____________________________________________^
*** ERROR #A9 IN 1900 (Src\JC.asm, LINE 1900): SYNTAX ERROR
0E73                1901     CALIHB1:
0E73                1902                        MOV  A,[HL+1]
*** ___________________________________________________^
*** ____________________________________________________^
*** ________________________________________________________^
A51 MACRO ASSEMBLER  JC                                                                   12/18/2017 16:56:46 PAGE    68

*** ERROR #A9 IN 1902 (Src\JC.asm, LINE 1902): SYNTAX ERROR
*** ERROR #A9 IN 1902 (Src\JC.asm, LINE 1902): SYNTAX ERROR
*** ERROR #A9 IN 1902 (Src\JC.asm, LINE 1902): SYNTAX ERROR
                    1903                        SUB  A,BATENL
*** ____________________________________________^
*** ERROR #A9 IN 1903 (Src\JC.asm, LINE 1903): SYNTAX ERROR
                    1904                        BNC  $CALIHB2
*** ____________________________________________^
*** ERROR #A9 IN 1904 (Src\JC.asm, LINE 1904): SYNTAX ERROR
0E73                1905                        CALL !ABS1
*** _________________________________________________^
*** __________________________________________________^
*** ERROR #A9 IN 1905 (Src\JC.asm, LINE 1905): SYNTAX ERROR
*** ERROR #A9 IN 1905 (Src\JC.asm, LINE 1905): SYNTAX ERROR
0E73                1906     CALIHB2:
                    1907                        CMP  A,BATENH
*** ____________________________________________^
*** ERROR #A9 IN 1907 (Src\JC.asm, LINE 1907): SYNTAX ERROR
                    1908                        BC   $CALIHB5
*** ____________________________________________^
*** ERROR #A9 IN 1908 (Src\JC.asm, LINE 1908): SYNTAX ERROR
0E73                1909                        MOV  A,[HL]
*** ___________________________________________________^
*** ____________________________________________________^
*** ______________________________________________________^
*** ERROR #A9 IN 1909 (Src\JC.asm, LINE 1909): SYNTAX ERROR
*** ERROR #A9 IN 1909 (Src\JC.asm, LINE 1909): SYNTAX ERROR
*** ERROR #A9 IN 1909 (Src\JC.asm, LINE 1909): SYNTAX ERROR
                    1910                        SUB  A,BATENL
*** ____________________________________________^
*** ERROR #A9 IN 1910 (Src\JC.asm, LINE 1910): SYNTAX ERROR
                    1911                        BNC  $CALIHB3
*** ____________________________________________^
*** ERROR #A9 IN 1911 (Src\JC.asm, LINE 1911): SYNTAX ERROR
0E73                1912                        CALL !ABS1
*** _________________________________________________^
*** __________________________________________________^
*** ERROR #A9 IN 1912 (Src\JC.asm, LINE 1912): SYNTAX ERROR
*** ERROR #A9 IN 1912 (Src\JC.asm, LINE 1912): SYNTAX ERROR
0E73                1913     CALIHB3:
                    1914                        CMP  A,#3
*** ____________________________________________^
*** ERROR #A9 IN 1914 (Src\JC.asm, LINE 1914): SYNTAX ERROR
                    1915                        BNC  $CALIHB5
*** ____________________________________________^
*** ERROR #A9 IN 1915 (Src\JC.asm, LINE 1915): SYNTAX ERROR
0E73                1916                        MOV  A,[HL+2]
*** ___________________________________________________^
*** ____________________________________________________^
*** ________________________________________________________^
*** ERROR #A9 IN 1916 (Src\JC.asm, LINE 1916): SYNTAX ERROR
*** ERROR #A9 IN 1916 (Src\JC.asm, LINE 1916): SYNTAX ERROR
*** ERROR #A9 IN 1916 (Src\JC.asm, LINE 1916): SYNTAX ERROR
                    1917                        SUB  A,BATENL
*** ____________________________________________^
*** ERROR #A9 IN 1917 (Src\JC.asm, LINE 1917): SYNTAX ERROR
                    1918                        BNC  $CALIHB4
*** ____________________________________________^
*** ERROR #A9 IN 1918 (Src\JC.asm, LINE 1918): SYNTAX ERROR
0E73                1919                        CALL !ABS1
*** _________________________________________________^
*** __________________________________________________^
*** ERROR #A9 IN 1919 (Src\JC.asm, LINE 1919): SYNTAX ERROR
*** ERROR #A9 IN 1919 (Src\JC.asm, LINE 1919): SYNTAX ERROR
0E73                1920     CALIHB4:
                    1921                CMP  A,#3
A51 MACRO ASSEMBLER  JC                                                                   12/18/2017 16:56:46 PAGE    69

*** ____________________________________^
*** ERROR #A9 IN 1921 (Src\JC.asm, LINE 1921): SYNTAX ERROR
                    1922                BNC  $CALIHB5
*** ____________________________________^
*** ERROR #A9 IN 1922 (Src\JC.asm, LINE 1922): SYNTAX ERROR
0E73 0524           1923                INC  PA4
*** _________________________________________^
*** WARNING #A52 IN 1923 (Src\JC.asm, LINE 1923): VALUE HAS BEEN TRUNCATED TO 8 BITS
0E75                1924     CALIHB5:
                    1925                        INCW HL
*** ____________________________________________^
*** ERROR #A9 IN 1925 (Src\JC.asm, LINE 1925): SYNTAX ERROR
0E75 05F0           1926                        INC  B
0E77 E5F0           1927                        MOV  A,B
                    1928                        CMP  A,MAXVP
*** ____________________________________________^
*** ERROR #A9 IN 1928 (Src\JC.asm, LINE 1928): SYNTAX ERROR
                    1929                        BNZ  $CALIHB1
*** ____________________________________________^
*** ERROR #A9 IN 1929 (Src\JC.asm, LINE 1929): SYNTAX ERROR
0E79                1930     CIHBEND:
                    1931                        CMP  PA4,#2
*** ____________________________________________^
*** ERROR #A9 IN 1931 (Src\JC.asm, LINE 1931): SYNTAX ERROR
                    1932                        BC   $NOIHB
*** ____________________________________________^
*** ERROR #A9 IN 1932 (Src\JC.asm, LINE 1932): SYNTAX ERROR
                    1933                        SET1 IHB
*** ____________________________________________^
*** ERROR #A9 IN 1933 (Src\JC.asm, LINE 1933): SYNTAX ERROR
0E79                1934     NOIHB:
0E79 22             1935               RET
                    1936     ;************************************************************************************
0E7A                1937     TOBP:             
                    1938               MOVW  AX,STARTPL
*** ___________________________________^
*** ERROR #A9 IN 1938 (Src\JC.asm, LINE 1938): SYNTAX ERROR
                    1939               MOVW  PA0,AX
*** ___________________________________^
*** ERROR #A9 IN 1939 (Src\JC.asm, LINE 1939): SYNTAX ERROR
                    1940               ;------------------------
0E7A 752264         1941               MOV   PA2,#100
*** _________________________________________^
*** WARNING #A52 IN 1941 (Src\JC.asm, LINE 1941): VALUE HAS BEEN TRUNCATED TO 8 BITS
0E7D                1942               CALL  !UMUL 
*** _________________________________________^
*** __________________________________________^
*** ERROR #A9 IN 1942 (Src\JC.asm, LINE 1942): SYNTAX ERROR
*** ERROR #A9 IN 1942 (Src\JC.asm, LINE 1942): SYNTAX ERROR
                    1943               MOVW  AX,BASEDT
*** ___________________________________^
*** ERROR #A9 IN 1943 (Src\JC.asm, LINE 1943): SYNTAX ERROR
                    1944               MOVW  PA4,AX 
*** ___________________________________^
*** ERROR #A9 IN 1944 (Src\JC.asm, LINE 1944): SYNTAX ERROR
0E7D 752300         1945               MOV   PA3,#0
*** _________________________________________^
*** WARNING #A52 IN 1945 (Src\JC.asm, LINE 1945): VALUE HAS BEEN TRUNCATED TO 8 BITS
                    1946               ;------------------------修改   小梁 2012.12.18
0E80                1947               CALL  !UDIV            
*** _________________________________________^
*** __________________________________________^
*** ERROR #A9 IN 1947 (Src\JC.asm, LINE 1947): SYNTAX ERROR
*** ERROR #A9 IN 1947 (Src\JC.asm, LINE 1947): SYNTAX ERROR
                    1948               MOVW  AX,PA0
*** ___________________________________^
A51 MACRO ASSEMBLER  JC                                                                   12/18/2017 16:56:46 PAGE    70

*** ERROR #A9 IN 1948 (Src\JC.asm, LINE 1948): SYNTAX ERROR
                    1949               CMPW  AX,#1EH
*** ___________________________________^
*** ERROR #A9 IN 1949 (Src\JC.asm, LINE 1949): SYNTAX ERROR
                    1950               BNC   $TOBP0
*** ___________________________________^
*** ERROR #A9 IN 1950 (Src\JC.asm, LINE 1950): SYNTAX ERROR
0E80 75201E         1951               MOV   PA0,#1EH            
*** _________________________________________^
*** WARNING #A52 IN 1951 (Src\JC.asm, LINE 1951): VALUE HAS BEEN TRUNCATED TO 8 BITS
0E83                1952     TOBP0:
0E83 E520           1953                       MOV   A,PA0
*** ___________________________________________________^
*** WARNING #A52 IN 1953 (Src\JC.asm, LINE 1953): VALUE HAS BEEN TRUNCATED TO 8 BITS
0E85                1954                       MOV   X,A
*** _________________________________________________^
*** ERROR #A45 IN 1954 (Src\JC.asm, LINE 1954): UNDEFINED SYMBOL (PASS-2)
0E87 E521           1955                       MOV   A,PA1
*** ___________________________________________________^
*** WARNING #A52 IN 1955 (Src\JC.asm, LINE 1955): VALUE HAS BEEN TRUNCATED TO 8 BITS
                    1956                   SUBW                      AX,#1EH
*** _______________________________________^
*** ERROR #A9 IN 1956 (Src\JC.asm, LINE 1956): SYNTAX ERROR
                    1957                   CMPW      AX,#0FFH
*** _______________________________________^
*** ERROR #A9 IN 1957 (Src\JC.asm, LINE 1957): SYNTAX ERROR
                    1958               BC    $TOBP01
*** ___________________________________^
*** ERROR #A9 IN 1958 (Src\JC.asm, LINE 1958): SYNTAX ERROR
0E89                1959               MOV   X,#0FFH
*** _________________________________________^
*** ERROR #A45 IN 1959 (Src\JC.asm, LINE 1959): UNDEFINED SYMBOL (PASS-2)
0E8C                1960     TOBP01:   
0E8C                1961               MOV   A,X
*** ___________________________________________^
*** ERROR #A45 IN 1961 (Src\JC.asm, LINE 1961): UNDEFINED SYMBOL (PASS-2)
0E8E F522           1962               MOV   PA2,A
*** _________________________________________^
*** WARNING #A52 IN 1962 (Src\JC.asm, LINE 1962): VALUE HAS BEEN TRUNCATED TO 8 BITS
0E90 E547           1963                       MOV   A,BPPTR
*** ___________________________________________________^
*** WARNING #A52 IN 1963 (Src\JC.asm, LINE 1963): VALUE HAS BEEN TRUNCATED TO 8 BITS
0E92                1964                       XCH   A,X
*** ___________________________________________________^
*** ERROR #A45 IN 1964 (Src\JC.asm, LINE 1964): UNDEFINED SYMBOL (PASS-2)
0E94 7400           1965                       MOV   A,#0
                    1966                       ADDW  AX,#BPDATAP
*** ___________________________________________^
*** ERROR #A9 IN 1966 (Src\JC.asm, LINE 1966): SYNTAX ERROR
                    1967                       MOVW  HL,AX
*** ___________________________________________^
*** ERROR #A9 IN 1967 (Src\JC.asm, LINE 1967): SYNTAX ERROR
0E96 E522           1968                       MOV   A,PA2
*** ___________________________________________________^
*** WARNING #A52 IN 1968 (Src\JC.asm, LINE 1968): VALUE HAS BEEN TRUNCATED TO 8 BITS
0E98                1969                       MOV   [HL],A
*** _________________________________________________^
*** __________________________________________________^
*** ____________________________________________________^
*** ERROR #A9 IN 1969 (Src\JC.asm, LINE 1969): SYNTAX ERROR
*** ERROR #A9 IN 1969 (Src\JC.asm, LINE 1969): SYNTAX ERROR
*** ERROR #A9 IN 1969 (Src\JC.asm, LINE 1969): SYNTAX ERROR
0E98 E535           1970                       MOV   A,PEAKPH
*** ___________________________________________________^
*** WARNING #A52 IN 1970 (Src\JC.asm, LINE 1970): VALUE HAS BEEN TRUNCATED TO 8 BITS
                    1971                       RORC  A,1
A51 MACRO ASSEMBLER  JC                                                                   12/18/2017 16:56:46 PAGE    71

*** ___________________________________________^
*** ERROR #A9 IN 1971 (Src\JC.asm, LINE 1971): SYNTAX ERROR
0E9A F535           1972                       MOV   PEAKPH,A
*** _________________________________________________^
*** WARNING #A52 IN 1972 (Src\JC.asm, LINE 1972): VALUE HAS BEEN TRUNCATED TO 8 BITS
0E9C E534           1973                       MOV   A,PEAKPL
*** ___________________________________________________^
*** WARNING #A52 IN 1973 (Src\JC.asm, LINE 1973): VALUE HAS BEEN TRUNCATED TO 8 BITS
                    1974                       RORC  A,1
*** ___________________________________________^
*** ERROR #A9 IN 1974 (Src\JC.asm, LINE 1974): SYNTAX ERROR
0E9E F534           1975                       MOV   PEAKPL,A
*** _________________________________________________^
*** WARNING #A52 IN 1975 (Src\JC.asm, LINE 1975): VALUE HAS BEEN TRUNCATED TO 8 BITS
0EA0 E535           1976                       MOV   A,PEAKPH
*** ___________________________________________________^
*** WARNING #A52 IN 1976 (Src\JC.asm, LINE 1976): VALUE HAS BEEN TRUNCATED TO 8 BITS
                    1977                       RORC  A,1
*** ___________________________________________^
*** ERROR #A9 IN 1977 (Src\JC.asm, LINE 1977): SYNTAX ERROR
0EA2 E534           1978                       MOV   A,PEAKPL;
*** ___________________________________________________^
*** WARNING #A52 IN 1978 (Src\JC.asm, LINE 1978): VALUE HAS BEEN TRUNCATED TO 8 BITS
                    1979                       RORC  A,1
*** ___________________________________________^
*** ERROR #A9 IN 1979 (Src\JC.asm, LINE 1979): SYNTAX ERROR
0EA4 3400           1980                       ADDC  A,#0
0EA6 F534           1981                       MOV   PEAKPL,A
*** _________________________________________________^
*** WARNING #A52 IN 1981 (Src\JC.asm, LINE 1981): VALUE HAS BEEN TRUNCATED TO 8 BITS
0EA8 E547           1982                       MOV   A,BPPTR
*** ___________________________________________________^
*** WARNING #A52 IN 1982 (Src\JC.asm, LINE 1982): VALUE HAS BEEN TRUNCATED TO 8 BITS
0EAA                1983                       XCH   A,X
*** ___________________________________________________^
*** ERROR #A45 IN 1983 (Src\JC.asm, LINE 1983): UNDEFINED SYMBOL (PASS-2)
0EAC 7400           1984                       MOV   A,#0
                    1985                       ADDW  AX,#BPDATAV
*** ___________________________________________^
*** ERROR #A9 IN 1985 (Src\JC.asm, LINE 1985): SYNTAX ERROR
                    1986                       MOVW  HL,AX
*** ___________________________________________^
*** ERROR #A9 IN 1986 (Src\JC.asm, LINE 1986): SYNTAX ERROR
0EAE E534           1987                       MOV   A,PEAKPL
*** ___________________________________________________^
*** WARNING #A52 IN 1987 (Src\JC.asm, LINE 1987): VALUE HAS BEEN TRUNCATED TO 8 BITS
0EB0                1988                       MOV   [HL],A
*** _________________________________________________^
*** __________________________________________________^
*** ____________________________________________________^
*** ERROR #A9 IN 1988 (Src\JC.asm, LINE 1988): SYNTAX ERROR
*** ERROR #A9 IN 1988 (Src\JC.asm, LINE 1988): SYNTAX ERROR
*** ERROR #A9 IN 1988 (Src\JC.asm, LINE 1988): SYNTAX ERROR
0EB0                1989     TOBP1:     
                    1990               CMP   BPPTR,#1
*** ___________________________________^
*** ERROR #A9 IN 1990 (Src\JC.asm, LINE 1990): SYNTAX ERROR
                    1991               BC    $TOBP2
*** ___________________________________^
*** ERROR #A9 IN 1991 (Src\JC.asm, LINE 1991): SYNTAX ERROR
0EB0 E547           1992               MOV   A,BPPTR
*** ___________________________________________^
*** WARNING #A52 IN 1992 (Src\JC.asm, LINE 1992): VALUE HAS BEEN TRUNCATED TO 8 BITS
0EB2                1993               XCH   A,X
*** ___________________________________________^
*** ERROR #A45 IN 1993 (Src\JC.asm, LINE 1993): UNDEFINED SYMBOL (PASS-2)
A51 MACRO ASSEMBLER  JC                                                                   12/18/2017 16:56:46 PAGE    72

0EB4 7400           1994               MOV   A,#0
                    1995               ADDW  AX,#BPDATAP
*** ___________________________________^
*** ERROR #A9 IN 1995 (Src\JC.asm, LINE 1995): SYNTAX ERROR
                    1996               MOVW  HL,AX
*** ___________________________________^
*** ERROR #A9 IN 1996 (Src\JC.asm, LINE 1996): SYNTAX ERROR
                    1997               DECW  HL
*** ___________________________________^
*** ERROR #A9 IN 1997 (Src\JC.asm, LINE 1997): SYNTAX ERROR
0EB6                1998               MOV   A,[HL+1]
*** ___________________________________________^
*** ____________________________________________^
*** ________________________________________________^
*** ERROR #A9 IN 1998 (Src\JC.asm, LINE 1998): SYNTAX ERROR
*** ERROR #A9 IN 1998 (Src\JC.asm, LINE 1998): SYNTAX ERROR
*** ERROR #A9 IN 1998 (Src\JC.asm, LINE 1998): SYNTAX ERROR
                    1999               CMP   A,[HL]
*** ___________________________________^
*** ___________________________________________^
*** ______________________________________________^
*** ERROR #A9 IN 1999 (Src\JC.asm, LINE 1999): SYNTAX ERROR
*** ERROR #A3 IN 1999 (Src\JC.asm, LINE 1999): ILLEGAL CHARACTER
*** ERROR #A3 IN 1999 (Src\JC.asm, LINE 1999): ILLEGAL CHARACTER
                    2000               BC    $TOBP2
*** ___________________________________^
*** ERROR #A9 IN 2000 (Src\JC.asm, LINE 2000): SYNTAX ERROR
0EB6                2001               MOV   [HL],A
*** _________________________________________^
*** __________________________________________^
*** ____________________________________________^
*** ERROR #A9 IN 2001 (Src\JC.asm, LINE 2001): SYNTAX ERROR
*** ERROR #A9 IN 2001 (Src\JC.asm, LINE 2001): SYNTAX ERROR
*** ERROR #A9 IN 2001 (Src\JC.asm, LINE 2001): SYNTAX ERROR
0EB6 E547           2002               MOV   A,BPPTR
*** ___________________________________________^
*** WARNING #A52 IN 2002 (Src\JC.asm, LINE 2002): VALUE HAS BEEN TRUNCATED TO 8 BITS
0EB8                2003               MOV   X,A
*** _________________________________________^
*** ERROR #A45 IN 2003 (Src\JC.asm, LINE 2003): UNDEFINED SYMBOL (PASS-2)
0EBA 7400           2004               MOV   A,#0
                    2005               MOVW  HL,AX
*** ___________________________________^
*** ERROR #A9 IN 2005 (Src\JC.asm, LINE 2005): SYNTAX ERROR
                    2006               DECW  HL
*** ___________________________________^
*** ERROR #A9 IN 2006 (Src\JC.asm, LINE 2006): SYNTAX ERROR
0EBC                2007               MOV   A,[HL+1]
*** ___________________________________________^
*** ____________________________________________^
*** ________________________________________________^
*** ERROR #A9 IN 2007 (Src\JC.asm, LINE 2007): SYNTAX ERROR
*** ERROR #A9 IN 2007 (Src\JC.asm, LINE 2007): SYNTAX ERROR
*** ERROR #A9 IN 2007 (Src\JC.asm, LINE 2007): SYNTAX ERROR
0EBC                2008               MOV   [HL],A
*** _________________________________________^
*** __________________________________________^
*** ____________________________________________^
*** ERROR #A9 IN 2008 (Src\JC.asm, LINE 2008): SYNTAX ERROR
*** ERROR #A9 IN 2008 (Src\JC.asm, LINE 2008): SYNTAX ERROR
*** ERROR #A9 IN 2008 (Src\JC.asm, LINE 2008): SYNTAX ERROR
0EBC 1547           2009               DEC   BPPTR
*** _________________________________________^
*** WARNING #A52 IN 2009 (Src\JC.asm, LINE 2009): VALUE HAS BEEN TRUNCATED TO 8 BITS
                    2010               ;INC  UNMEASR
                    2011               BR    $TOBP1       
A51 MACRO ASSEMBLER  JC                                                                   12/18/2017 16:56:46 PAGE    73

*** ___________________________________^
*** ERROR #A9 IN 2011 (Src\JC.asm, LINE 2011): SYNTAX ERROR
0EBE                2012     TOBP2:
0EBE 22             2013                       RET   
                    2014     ;************************************************************************************                     
0EBF                2015     LDMAXV:
                    2016     ;---------------------modify_19_06-------------------------
0EBF E560           2017                   MOV       A,MAXVP
*** ___________________________________________________^
*** WARNING #A52 IN 2017 (Src\JC.asm, LINE 2017): VALUE HAS BEEN TRUNCATED TO 8 BITS
0EC1                2018               XCH   A,X
*** ___________________________________________^
*** ERROR #A45 IN 2018 (Src\JC.asm, LINE 2018): UNDEFINED SYMBOL (PASS-2)
0EC3 7400           2019               MOV   A,#0
                    2020               ADDW  AX,#BPDATAV
*** ___________________________________^
*** ERROR #A9 IN 2020 (Src\JC.asm, LINE 2020): SYNTAX ERROR
                    2021                       DECW  AX
*** ___________________________________________^
*** ERROR #A9 IN 2021 (Src\JC.asm, LINE 2021): SYNTAX ERROR
                    2022               MOVW  HL,AX
*** ___________________________________^
*** ERROR #A9 IN 2022 (Src\JC.asm, LINE 2022): SYNTAX ERROR
0EC5                2023               MOV   A,[HL]
*** ___________________________________________^
*** ____________________________________________^
*** ______________________________________________^
*** ERROR #A9 IN 2023 (Src\JC.asm, LINE 2023): SYNTAX ERROR
*** ERROR #A9 IN 2023 (Src\JC.asm, LINE 2023): SYNTAX ERROR
*** ERROR #A9 IN 2023 (Src\JC.asm, LINE 2023): SYNTAX ERROR
0EC5 F5DC           2024                       MOV   MAXVP_DATE_0,A
*** _________________________________________________^
*** WARNING #A52 IN 2024 (Src\JC.asm, LINE 2024): VALUE HAS BEEN TRUNCATED TO 8 BITS
0EC7                2025                       MOV   A,[HL+1]
*** ___________________________________________________^
*** ____________________________________________________^
*** ________________________________________________________^
*** ERROR #A9 IN 2025 (Src\JC.asm, LINE 2025): SYNTAX ERROR
*** ERROR #A9 IN 2025 (Src\JC.asm, LINE 2025): SYNTAX ERROR
*** ERROR #A9 IN 2025 (Src\JC.asm, LINE 2025): SYNTAX ERROR
0EC7 F5DE           2026                       MOV   MAXVP_DATE_M,A
*** _________________________________________________^
*** WARNING #A52 IN 2026 (Src\JC.asm, LINE 2026): VALUE HAS BEEN TRUNCATED TO 8 BITS
                    2027                       SUB   A,MAXVP_DATE_0
*** ___________________________________________^
*** ERROR #A9 IN 2027 (Src\JC.asm, LINE 2027): SYNTAX ERROR
                    2028                       BNC   $LDMAXV_A
*** ___________________________________________^
*** ERROR #A9 IN 2028 (Src\JC.asm, LINE 2028): SYNTAX ERROR
0EC9                2029               MOV   X,A
*** _________________________________________^
*** ERROR #A45 IN 2029 (Src\JC.asm, LINE 2029): UNDEFINED SYMBOL (PASS-2)
0ECB 7400           2030               MOV   A,#0
                    2031               SUB   A,X               
*** ___________________________________^
*** ERROR #A9 IN 2031 (Src\JC.asm, LINE 2031): SYNTAX ERROR
0ECD                2032     LDMAXV_A:
                    2033                       CMP   A,#MAXVP_JUDGE_NUM               ;最大值和上一次值比较大于5则不参与计算平均值 继续判断下一次值
*** ___________________________________________^
*** ERROR #A9 IN 2033 (Src\JC.asm, LINE 2033): SYNTAX ERROR
                    2034                       BNC   $LDMAXV_0
*** ___________________________________________^
*** ERROR #A9 IN 2034 (Src\JC.asm, LINE 2034): SYNTAX ERROR
0ECD E5DE           2035               MOV   A,MAXVP_DATE_M            
*** ___________________________________________^
*** WARNING #A52 IN 2035 (Src\JC.asm, LINE 2035): VALUE HAS BEEN TRUNCATED TO 8 BITS
A51 MACRO ASSEMBLER  JC                                                                   12/18/2017 16:56:46 PAGE    74

0ECF                2036                       MOV   X,#0
*** _________________________________________________^
*** ERROR #A45 IN 2036 (Src\JC.asm, LINE 2036): UNDEFINED SYMBOL (PASS-2)
0ED2 25DC           2037                       ADD   A,MAXVP_DATE_0
*** ___________________________________________________^
*** WARNING #A52 IN 2037 (Src\JC.asm, LINE 2037): VALUE HAS BEEN TRUNCATED TO 8 BITS
0ED4                2038                       XCH   A,X
*** ___________________________________________________^
*** ERROR #A45 IN 2038 (Src\JC.asm, LINE 2038): UNDEFINED SYMBOL (PASS-2)
0ED6 3400           2039                       ADDC  A,#0
0ED8                2040                       PUSH  AX
*** _________________________________________________^
*** ERROR #A45 IN 2040 (Src\JC.asm, LINE 2040): UNDEFINED SYMBOL (PASS-2)
0EDA 752403         2041                       MOV   PA4,#3                           ;3组求平均
*** _________________________________________________^
*** WARNING #A52 IN 2041 (Src\JC.asm, LINE 2041): VALUE HAS BEEN TRUNCATED TO 8 BITS
                    2042                       BR    $LDMAXV_1
*** ___________________________________________^
*** ERROR #A9 IN 2042 (Src\JC.asm, LINE 2042): SYNTAX ERROR
0EDD                2043     LDMAXV_0:
0EDD E5DE           2044               MOV   A,MAXVP_DATE_M
*** ___________________________________________^
*** WARNING #A52 IN 2044 (Src\JC.asm, LINE 2044): VALUE HAS BEEN TRUNCATED TO 8 BITS
0EDF                2045                       XCH   A,X
*** ___________________________________________________^
*** ERROR #A45 IN 2045 (Src\JC.asm, LINE 2045): UNDEFINED SYMBOL (PASS-2)
0EE1 7400           2046                       MOV   A,#0
0EE3                2047                       PUSH  AX
*** _________________________________________________^
*** ERROR #A45 IN 2047 (Src\JC.asm, LINE 2047): UNDEFINED SYMBOL (PASS-2)
0EE5 752402         2048               MOV   PA4,#2                           ;2组求平均
*** _________________________________________^
*** WARNING #A52 IN 2048 (Src\JC.asm, LINE 2048): VALUE HAS BEEN TRUNCATED TO 8 BITS
0EE8                2049     LDMAXV_1:
0EE8                2050               MOV   A,[HL+2]
*** ___________________________________________^
*** ____________________________________________^
*** ________________________________________________^
*** ERROR #A9 IN 2050 (Src\JC.asm, LINE 2050): SYNTAX ERROR
*** ERROR #A9 IN 2050 (Src\JC.asm, LINE 2050): SYNTAX ERROR
*** ERROR #A9 IN 2050 (Src\JC.asm, LINE 2050): SYNTAX ERROR
0EE8 F5DD           2051                       MOV   MAXVP_DATE_1,A
*** _________________________________________________^
*** WARNING #A52 IN 2051 (Src\JC.asm, LINE 2051): VALUE HAS BEEN TRUNCATED TO 8 BITS
0EEA E5DE           2052                       MOV   A,MAXVP_DATE_M
*** ___________________________________________________^
*** WARNING #A52 IN 2052 (Src\JC.asm, LINE 2052): VALUE HAS BEEN TRUNCATED TO 8 BITS
                    2053                       SUB   A,MAXVP_DATE_1
*** ___________________________________________^
*** ERROR #A9 IN 2053 (Src\JC.asm, LINE 2053): SYNTAX ERROR
                    2054                       BNC   $LDMAXV_1_A
*** ___________________________________________^
*** ERROR #A9 IN 2054 (Src\JC.asm, LINE 2054): SYNTAX ERROR
0EEC                2055               MOV   X,A
*** _________________________________________^
*** ERROR #A45 IN 2055 (Src\JC.asm, LINE 2055): UNDEFINED SYMBOL (PASS-2)
0EEE 7400           2056               MOV   A,#0
                    2057               SUB   A,X
*** ___________________________________^
*** ERROR #A9 IN 2057 (Src\JC.asm, LINE 2057): SYNTAX ERROR
0EF0                2058     LDMAXV_1_A:
                    2059                       CMP   A,#MAXVP_JUDGE_NUM
*** ___________________________________________^
*** ERROR #A9 IN 2059 (Src\JC.asm, LINE 2059): SYNTAX ERROR
                    2060                       BNC   $LDMAXV_END_J                    ;最大值和下一次值比较大于5则不参与计算平均值，以原最大值输出
*** ___________________________________________^
A51 MACRO ASSEMBLER  JC                                                                   12/18/2017 16:56:46 PAGE    75

*** ERROR #A9 IN 2060 (Src\JC.asm, LINE 2060): SYNTAX ERROR
0EF0                2061                       POP   AX
*** _________________________________________________^
*** ERROR #A45 IN 2061 (Src\JC.asm, LINE 2061): UNDEFINED SYMBOL (PASS-2)
0EF2                2062                       XCH   A,X
*** ___________________________________________________^
*** ERROR #A45 IN 2062 (Src\JC.asm, LINE 2062): UNDEFINED SYMBOL (PASS-2)
0EF4 25DD           2063                       ADD   A,MAXVP_DATE_1
*** ___________________________________________________^
*** WARNING #A52 IN 2063 (Src\JC.asm, LINE 2063): VALUE HAS BEEN TRUNCATED TO 8 BITS
0EF6                2064                       XCH   A,X
*** ___________________________________________________^
*** ERROR #A45 IN 2064 (Src\JC.asm, LINE 2064): UNDEFINED SYMBOL (PASS-2)
0EF8 3400           2065                       ADDC  A,#0
0EFA                2066     LDMAXV_2:
0EFA 752500         2067               MOV   PA5,#0
*** _________________________________________^
*** WARNING #A52 IN 2067 (Src\JC.asm, LINE 2067): VALUE HAS BEEN TRUNCATED TO 8 BITS
0EFD 752300         2068               MOV   PA3,#0
*** _________________________________________^
*** WARNING #A52 IN 2068 (Src\JC.asm, LINE 2068): VALUE HAS BEEN TRUNCATED TO 8 BITS
0F00 752200         2069                       MOV   PA2,#0
*** _________________________________________________^
*** WARNING #A52 IN 2069 (Src\JC.asm, LINE 2069): VALUE HAS BEEN TRUNCATED TO 8 BITS
                    2070                       MOVW  PA0,AX
*** ___________________________________________^
*** ERROR #A9 IN 2070 (Src\JC.asm, LINE 2070): SYNTAX ERROR
0F03                2071               CALL  !UDIV
*** _________________________________________^
*** __________________________________________^
*** ERROR #A9 IN 2071 (Src\JC.asm, LINE 2071): SYNTAX ERROR
*** ERROR #A9 IN 2071 (Src\JC.asm, LINE 2071): SYNTAX ERROR
0F03 E520           2072                       MOV   A,PA0
*** ___________________________________________________^
*** WARNING #A52 IN 2072 (Src\JC.asm, LINE 2072): VALUE HAS BEEN TRUNCATED TO 8 BITS
                    2073                       BR    $LDMAXV_END
*** ___________________________________________^
*** ERROR #A9 IN 2073 (Src\JC.asm, LINE 2073): SYNTAX ERROR
0F05                2074     LDMAXV_END_J:
0F05 E524           2075               MOV   A,PA4
*** ___________________________________________^
*** WARNING #A52 IN 2075 (Src\JC.asm, LINE 2075): VALUE HAS BEEN TRUNCATED TO 8 BITS
0F07 14             2076                       DEC   A
0F08 F524           2077                       MOV   PA4,A
*** _________________________________________________^
*** WARNING #A52 IN 2077 (Src\JC.asm, LINE 2077): VALUE HAS BEEN TRUNCATED TO 8 BITS
                    2078                       CMP   A,#1                     ;是否需要做平均
*** ___________________________________________^
*** ERROR #A9 IN 2078 (Src\JC.asm, LINE 2078): SYNTAX ERROR
                    2079                       BNZ   $LDMAXV_END_J_0
*** ___________________________________________^
*** ERROR #A9 IN 2079 (Src\JC.asm, LINE 2079): SYNTAX ERROR
0F0A                2080               POP   AX
*** _________________________________________^
*** ERROR #A45 IN 2080 (Src\JC.asm, LINE 2080): UNDEFINED SYMBOL (PASS-2)
0F0C E5DE           2081               MOV   A,MAXVP_DATE_M
*** ___________________________________________^
*** WARNING #A52 IN 2081 (Src\JC.asm, LINE 2081): VALUE HAS BEEN TRUNCATED TO 8 BITS
0F0E                2082     LDMAXV_END:
0F0E 22             2083               RET
0F0F                2084     LDMAXV_END_J_0:
0F0F                2085               POP   AX
*** _________________________________________^
*** ERROR #A45 IN 2085 (Src\JC.asm, LINE 2085): UNDEFINED SYMBOL (PASS-2)
                    2086                       BR    !LDMAXV_2
*** ___________________________________________^
A51 MACRO ASSEMBLER  JC                                                                   12/18/2017 16:56:46 PAGE    76

*** _________________________________________________^
*** ERROR #A9 IN 2086 (Src\JC.asm, LINE 2086): SYNTAX ERROR
*** ERROR #A3 IN 2086 (Src\JC.asm, LINE 2086): ILLEGAL CHARACTER
                    2087     ;************************************************************************************                     
0F11                2088     LDMAXVP:
                    2089     ;---------------------modify_19_06-------------------------
0F11 E560           2090                   MOV       A,MAXVP
*** ___________________________________________________^
*** WARNING #A52 IN 2090 (Src\JC.asm, LINE 2090): VALUE HAS BEEN TRUNCATED TO 8 BITS
0F13                2091               XCH   A,X
*** ___________________________________________^
*** ERROR #A45 IN 2091 (Src\JC.asm, LINE 2091): UNDEFINED SYMBOL (PASS-2)
0F15 7400           2092               MOV   A,#0
                    2093               ADDW  AX,#BPDATAV
*** ___________________________________^
*** ERROR #A9 IN 2093 (Src\JC.asm, LINE 2093): SYNTAX ERROR
                    2094               MOVW  HL,AX
*** ___________________________________^
*** ERROR #A9 IN 2094 (Src\JC.asm, LINE 2094): SYNTAX ERROR
0F17                2095               MOV   A,[HL]
*** ___________________________________________^
*** ____________________________________________^
*** ______________________________________________^
*** ERROR #A9 IN 2095 (Src\JC.asm, LINE 2095): SYNTAX ERROR
*** ERROR #A9 IN 2095 (Src\JC.asm, LINE 2095): SYNTAX ERROR
*** ERROR #A9 IN 2095 (Src\JC.asm, LINE 2095): SYNTAX ERROR
0F17 22             2096               RET
                    2097     ;************************************************************************************
0F18                2098     CALPEAK:   
0F18 7404           2099                   MOV       A,#4        
0F1A                2100               CALL  !LDOPTRA
*** _________________________________________^
*** __________________________________________^
*** ERROR #A9 IN 2100 (Src\JC.asm, LINE 2100): SYNTAX ERROR
*** ERROR #A9 IN 2100 (Src\JC.asm, LINE 2100): SYNTAX ERROR
0F1A E536           2101               MOV   A,STARTPL  
*** ___________________________________________^
*** WARNING #A52 IN 2101 (Src\JC.asm, LINE 2101): VALUE HAS BEEN TRUNCATED TO 8 BITS
                    2102               SUB   A,PA0
*** ___________________________________^
*** ERROR #A9 IN 2102 (Src\JC.asm, LINE 2102): SYNTAX ERROR
0F1C F520           2103               MOV   PA0,A
*** _________________________________________^
*** WARNING #A52 IN 2103 (Src\JC.asm, LINE 2103): VALUE HAS BEEN TRUNCATED TO 8 BITS
0F1E E537           2104               MOV   A,STARTPH
*** ___________________________________________^
*** WARNING #A52 IN 2104 (Src\JC.asm, LINE 2104): VALUE HAS BEEN TRUNCATED TO 8 BITS
                    2105               SUBC  A,PA1
*** ___________________________________^
*** ERROR #A9 IN 2105 (Src\JC.asm, LINE 2105): SYNTAX ERROR
0F20 F521           2106               MOV   PA1,A
*** _________________________________________^
*** WARNING #A52 IN 2106 (Src\JC.asm, LINE 2106): VALUE HAS BEEN TRUNCATED TO 8 BITS
0F22 E545           2107               MOV   A,COUNT1   
*** ___________________________________________^
*** WARNING #A52 IN 2107 (Src\JC.asm, LINE 2107): VALUE HAS BEEN TRUNCATED TO 8 BITS
0F24 F522           2108               MOV   PA2,A
*** _________________________________________^
*** WARNING #A52 IN 2108 (Src\JC.asm, LINE 2108): VALUE HAS BEEN TRUNCATED TO 8 BITS
0F26                2109               CALL  !UMUL     
*** _________________________________________^
*** __________________________________________^
*** ERROR #A9 IN 2109 (Src\JC.asm, LINE 2109): SYNTAX ERROR
*** ERROR #A9 IN 2109 (Src\JC.asm, LINE 2109): SYNTAX ERROR
0F26 E544           2110               MOV   A,COUNT    
*** ___________________________________________^
A51 MACRO ASSEMBLER  JC                                                                   12/18/2017 16:56:46 PAGE    77

*** WARNING #A52 IN 2110 (Src\JC.asm, LINE 2110): VALUE HAS BEEN TRUNCATED TO 8 BITS
                    2111               SUB   A,#4
*** ___________________________________^
*** ERROR #A9 IN 2111 (Src\JC.asm, LINE 2111): SYNTAX ERROR
0F28 F524           2112               MOV   PA4,A
*** _________________________________________^
*** WARNING #A52 IN 2112 (Src\JC.asm, LINE 2112): VALUE HAS BEEN TRUNCATED TO 8 BITS
0F2A 752500         2113               MOV   PA5,#0
*** _________________________________________^
*** WARNING #A52 IN 2113 (Src\JC.asm, LINE 2113): VALUE HAS BEEN TRUNCATED TO 8 BITS
0F2D 752300         2114               MOV   PA3,#0
*** _________________________________________^
*** WARNING #A52 IN 2114 (Src\JC.asm, LINE 2114): VALUE HAS BEEN TRUNCATED TO 8 BITS
0F30                2115               CALL  !UDIV      
*** _________________________________________^
*** __________________________________________^
*** ERROR #A9 IN 2115 (Src\JC.asm, LINE 2115): SYNTAX ERROR
*** ERROR #A9 IN 2115 (Src\JC.asm, LINE 2115): SYNTAX ERROR
0F30 E534           2116               MOV   A,PEAKPL   
*** ___________________________________________^
*** WARNING #A52 IN 2116 (Src\JC.asm, LINE 2116): VALUE HAS BEEN TRUNCATED TO 8 BITS
0F32 2520           2117               ADD   A,PA0
*** ___________________________________________^
*** WARNING #A52 IN 2117 (Src\JC.asm, LINE 2117): VALUE HAS BEEN TRUNCATED TO 8 BITS
0F34 F522           2118               MOV   PA2,A
*** _________________________________________^
*** WARNING #A52 IN 2118 (Src\JC.asm, LINE 2118): VALUE HAS BEEN TRUNCATED TO 8 BITS
0F36 E535           2119               MOV   A,PEAKPH
*** ___________________________________________^
*** WARNING #A52 IN 2119 (Src\JC.asm, LINE 2119): VALUE HAS BEEN TRUNCATED TO 8 BITS
0F38 3521           2120               ADDC  A,PA1
*** ___________________________________________^
*** WARNING #A52 IN 2120 (Src\JC.asm, LINE 2120): VALUE HAS BEEN TRUNCATED TO 8 BITS
0F3A F523           2121               MOV   PA3,A
*** _________________________________________^
*** WARNING #A52 IN 2121 (Src\JC.asm, LINE 2121): VALUE HAS BEEN TRUNCATED TO 8 BITS
0F3C E522           2122               MOV   A,PA2
*** ___________________________________________^
*** WARNING #A52 IN 2122 (Src\JC.asm, LINE 2122): VALUE HAS BEEN TRUNCATED TO 8 BITS
                    2123               SUB   A,STARTPL
*** ___________________________________^
*** ERROR #A9 IN 2123 (Src\JC.asm, LINE 2123): SYNTAX ERROR
0F3E F534           2124               MOV   PEAKPL,A
*** _________________________________________^
*** WARNING #A52 IN 2124 (Src\JC.asm, LINE 2124): VALUE HAS BEEN TRUNCATED TO 8 BITS
0F40 E523           2125               MOV   A,PA3
*** ___________________________________________^
*** WARNING #A52 IN 2125 (Src\JC.asm, LINE 2125): VALUE HAS BEEN TRUNCATED TO 8 BITS
                    2126               SUBC  A,STARTPH
*** ___________________________________^
*** ERROR #A9 IN 2126 (Src\JC.asm, LINE 2126): SYNTAX ERROR
0F42 F535           2127               MOV   PEAKPH,A
*** _________________________________________^
*** WARNING #A52 IN 2127 (Src\JC.asm, LINE 2127): VALUE HAS BEEN TRUNCATED TO 8 BITS
                    2128               BNC   $YTT1
*** ___________________________________^
*** ERROR #A9 IN 2128 (Src\JC.asm, LINE 2128): SYNTAX ERROR
0F44 753400         2129               MOV   PEAKPL,#0
*** _________________________________________^
*** WARNING #A52 IN 2129 (Src\JC.asm, LINE 2129): VALUE HAS BEEN TRUNCATED TO 8 BITS
0F47 753500         2130               MOV   PEAKPH,#0
*** _________________________________________^
*** WARNING #A52 IN 2130 (Src\JC.asm, LINE 2130): VALUE HAS BEEN TRUNCATED TO 8 BITS
0F4A                2131     YTT1:
0F4A 22             2132                   RET
                    2133     ;************************************************************************
A51 MACRO ASSEMBLER  JC                                                                   12/18/2017 16:56:46 PAGE    78

0F4B                2134     INSERT:    
0F4B EC             2135                       MOV   A,R4
0F4C                2136                       XCH   A,X
*** ___________________________________________________^
*** ERROR #A45 IN 2136 (Src\JC.asm, LINE 2136): UNDEFINED SYMBOL (PASS-2)
0F4E 7400           2137                       MOV   A,#0
                    2138                       ADDW  AX,#BPDATAV
*** ___________________________________________^
*** ERROR #A9 IN 2138 (Src\JC.asm, LINE 2138): SYNTAX ERROR
                    2139                       MOVW  HL,AX
*** ___________________________________________^
*** ERROR #A9 IN 2139 (Src\JC.asm, LINE 2139): SYNTAX ERROR
0F50                2140                       MOV   A,[HL]
*** ___________________________________________________^
*** ____________________________________________________^
*** ______________________________________________________^
*** ERROR #A9 IN 2140 (Src\JC.asm, LINE 2140): SYNTAX ERROR
*** ERROR #A9 IN 2140 (Src\JC.asm, LINE 2140): SYNTAX ERROR
*** ERROR #A9 IN 2140 (Src\JC.asm, LINE 2140): SYNTAX ERROR
0F50 F521           2141               MOV   PA1,A
*** _________________________________________^
*** WARNING #A52 IN 2141 (Src\JC.asm, LINE 2141): VALUE HAS BEEN TRUNCATED TO 8 BITS
                    2142               SUB   A,[HL+1]             
*** ___________________________________^
*** ___________________________________________^
*** ________________________________________________^
*** ERROR #A9 IN 2142 (Src\JC.asm, LINE 2142): SYNTAX ERROR
*** ERROR #A3 IN 2142 (Src\JC.asm, LINE 2142): ILLEGAL CHARACTER
*** ERROR #A3 IN 2142 (Src\JC.asm, LINE 2142): ILLEGAL CHARACTER
                    2143               BZ    $INSERT4
*** ___________________________________^
*** ERROR #A9 IN 2143 (Src\JC.asm, LINE 2143): SYNTAX ERROR
                    2144               BNC   $INSERT1
*** ___________________________________^
*** ERROR #A9 IN 2144 (Src\JC.asm, LINE 2144): SYNTAX ERROR
0F52                2145               MOV   X,A
*** _________________________________________^
*** ERROR #A45 IN 2145 (Src\JC.asm, LINE 2145): UNDEFINED SYMBOL (PASS-2)
0F54 7400           2146               MOV   A,#0
                    2147               SUB   A,X
*** ___________________________________^
*** ERROR #A9 IN 2147 (Src\JC.asm, LINE 2147): SYNTAX ERROR
0F56                2148     INSERT1:   
0F56 FD             2149                       MOV   R5,A;//AAAAAAAAAAAAAAAAAAAAAAAAAA
0F57 E520           2150               MOV   A,PA0
*** ___________________________________________^
*** WARNING #A52 IN 2150 (Src\JC.asm, LINE 2150): VALUE HAS BEEN TRUNCATED TO 8 BITS
                    2151               SUB   A,PA1
*** ___________________________________^
*** ERROR #A9 IN 2151 (Src\JC.asm, LINE 2151): SYNTAX ERROR
                    2152               BNC   $INSERT2
*** ___________________________________^
*** ERROR #A9 IN 2152 (Src\JC.asm, LINE 2152): SYNTAX ERROR
0F59                2153               MOV   X,A
*** _________________________________________^
*** ERROR #A45 IN 2153 (Src\JC.asm, LINE 2153): UNDEFINED SYMBOL (PASS-2)
0F5B 7400           2154               MOV   A,#0
                    2155               SUB   A,X
*** ___________________________________^
*** ERROR #A9 IN 2155 (Src\JC.asm, LINE 2155): SYNTAX ERROR
0F5D                2156     INSERT2:   
0F5D F522           2157                       MOV   PA2,A
*** _________________________________________________^
*** WARNING #A52 IN 2157 (Src\JC.asm, LINE 2157): VALUE HAS BEEN TRUNCATED TO 8 BITS
0F5F EC             2158                       MOV   A,R4
0F60                2159                       XCH   A,X
A51 MACRO ASSEMBLER  JC                                                                   12/18/2017 16:56:46 PAGE    79

*** ___________________________________________________^
*** ERROR #A45 IN 2159 (Src\JC.asm, LINE 2159): UNDEFINED SYMBOL (PASS-2)
0F62 7400           2160                       MOV   A,#0
                    2161                       ADDW  AX,#BPDATAP
*** ___________________________________________^
*** ERROR #A9 IN 2161 (Src\JC.asm, LINE 2161): SYNTAX ERROR
                    2162                       MOVW  HL,AX
*** ___________________________________________^
*** ERROR #A9 IN 2162 (Src\JC.asm, LINE 2162): SYNTAX ERROR
0F64                2163                       MOV   A,[HL]
*** ___________________________________________________^
*** ____________________________________________________^
*** ______________________________________________________^
*** ERROR #A9 IN 2163 (Src\JC.asm, LINE 2163): SYNTAX ERROR
*** ERROR #A9 IN 2163 (Src\JC.asm, LINE 2163): SYNTAX ERROR
*** ERROR #A9 IN 2163 (Src\JC.asm, LINE 2163): SYNTAX ERROR
                    2164     ;---------------------modify_19_07-------------------------
0F64 F526           2165               MOV   PA6,A
*** _________________________________________^
*** WARNING #A52 IN 2165 (Src\JC.asm, LINE 2165): VALUE HAS BEEN TRUNCATED TO 8 BITS
                    2166               CLR1  SBFLAG
*** ___________________________________^
*** ERROR #A9 IN 2166 (Src\JC.asm, LINE 2166): SYNTAX ERROR
                    2167               SUB   A,[HL+1]
*** ___________________________________^
*** ___________________________________________^
*** ________________________________________________^
*** ERROR #A9 IN 2167 (Src\JC.asm, LINE 2167): SYNTAX ERROR
*** ERROR #A3 IN 2167 (Src\JC.asm, LINE 2167): ILLEGAL CHARACTER
*** ERROR #A3 IN 2167 (Src\JC.asm, LINE 2167): ILLEGAL CHARACTER
                    2168               BNC   $INSERT3
*** ___________________________________^
*** ERROR #A9 IN 2168 (Src\JC.asm, LINE 2168): SYNTAX ERROR
0F66                2169               MOV   X,A
*** _________________________________________^
*** ERROR #A45 IN 2169 (Src\JC.asm, LINE 2169): UNDEFINED SYMBOL (PASS-2)
0F68 7400           2170               MOV   A,#0
                    2171               SUB   A,X
*** ___________________________________^
*** ERROR #A9 IN 2171 (Src\JC.asm, LINE 2171): SYNTAX ERROR
                    2172               SET1  SBFLAG    
*** ___________________________________^
*** ERROR #A9 IN 2172 (Src\JC.asm, LINE 2172): SYNTAX ERROR
0F6A                2173     INSERT3:   
0F6A F520           2174                       MOV   PA0,A
*** _________________________________________________^
*** WARNING #A52 IN 2174 (Src\JC.asm, LINE 2174): VALUE HAS BEEN TRUNCATED TO 8 BITS
0F6C 752100         2175               MOV   PA1,#0
*** _________________________________________^
*** WARNING #A52 IN 2175 (Src\JC.asm, LINE 2175): VALUE HAS BEEN TRUNCATED TO 8 BITS
0F6F                2176               CALL  !UMUL            
*** _________________________________________^
*** __________________________________________^
*** ERROR #A9 IN 2176 (Src\JC.asm, LINE 2176): SYNTAX ERROR
*** ERROR #A9 IN 2176 (Src\JC.asm, LINE 2176): SYNTAX ERROR
0F6F ED             2177               MOV   A,R5
0F70 F524           2178               MOV   PA4,A
*** _________________________________________^
*** WARNING #A52 IN 2178 (Src\JC.asm, LINE 2178): VALUE HAS BEEN TRUNCATED TO 8 BITS
0F72 752500         2179               MOV   PA5,#0
*** _________________________________________^
*** WARNING #A52 IN 2179 (Src\JC.asm, LINE 2179): VALUE HAS BEEN TRUNCATED TO 8 BITS
0F75 752300         2180               MOV   PA3,#0
*** _________________________________________^
*** WARNING #A52 IN 2180 (Src\JC.asm, LINE 2180): VALUE HAS BEEN TRUNCATED TO 8 BITS
0F78                2181               CALL  !UDIV            
A51 MACRO ASSEMBLER  JC                                                                   12/18/2017 16:56:46 PAGE    80

*** _________________________________________^
*** __________________________________________^
*** ERROR #A9 IN 2181 (Src\JC.asm, LINE 2181): SYNTAX ERROR
*** ERROR #A9 IN 2181 (Src\JC.asm, LINE 2181): SYNTAX ERROR
0F78 E526           2182               MOV   A,PA6
*** ___________________________________________^
*** WARNING #A52 IN 2182 (Src\JC.asm, LINE 2182): VALUE HAS BEEN TRUNCATED TO 8 BITS
                    2183     ;---------------------modify_19_07-------------------------
                    2184               BF    SBFLAG,$INSERT31
*** ___________________________________^
*** ERROR #A9 IN 2184 (Src\JC.asm, LINE 2184): SYNTAX ERROR
0F7A 2520           2185               ADD   A,PA0              
*** ___________________________________________^
*** WARNING #A52 IN 2185 (Src\JC.asm, LINE 2185): VALUE HAS BEEN TRUNCATED TO 8 BITS
                    2186               BR    $INSERT32
*** ___________________________________^
*** ERROR #A9 IN 2186 (Src\JC.asm, LINE 2186): SYNTAX ERROR
0F7C                2187     INSERT31:  
                    2188                       SUB   A,PA0              
*** ___________________________________________^
*** ERROR #A9 IN 2188 (Src\JC.asm, LINE 2188): SYNTAX ERROR
0F7C                2189     INSERT32:  
0F7C F520           2190                       MOV   PA0,A
*** _________________________________________________^
*** WARNING #A52 IN 2190 (Src\JC.asm, LINE 2190): VALUE HAS BEEN TRUNCATED TO 8 BITS
0F7E 22             2191               RET
0F7F                2192     INSERT4:   
0F7F EC             2193                       MOV   A,R4
0F80                2194                       XCH   A,X
*** ___________________________________________________^
*** ERROR #A45 IN 2194 (Src\JC.asm, LINE 2194): UNDEFINED SYMBOL (PASS-2)
0F82 7400           2195                       MOV   A,#0
                    2196                       ADDW  AX,#BPDATAP
*** ___________________________________________^
*** ERROR #A9 IN 2196 (Src\JC.asm, LINE 2196): SYNTAX ERROR
                    2197                       MOVW  HL,AX
*** ___________________________________________^
*** ERROR #A9 IN 2197 (Src\JC.asm, LINE 2197): SYNTAX ERROR
0F84                2198                       MOV   A,[HL]
*** ___________________________________________________^
*** ____________________________________________________^
*** ______________________________________________________^
*** ERROR #A9 IN 2198 (Src\JC.asm, LINE 2198): SYNTAX ERROR
*** ERROR #A9 IN 2198 (Src\JC.asm, LINE 2198): SYNTAX ERROR
*** ERROR #A9 IN 2198 (Src\JC.asm, LINE 2198): SYNTAX ERROR
0F84                2199               ADD   A,[HL+1]
*** ___________________________________________^
*** ____________________________________________^
*** ________________________________________________^
*** ERROR #A9 IN 2199 (Src\JC.asm, LINE 2199): SYNTAX ERROR
*** ERROR #A9 IN 2199 (Src\JC.asm, LINE 2199): SYNTAX ERROR
*** ERROR #A9 IN 2199 (Src\JC.asm, LINE 2199): SYNTAX ERROR
                    2200               RORC  A,1
*** ___________________________________^
*** ERROR #A9 IN 2200 (Src\JC.asm, LINE 2200): SYNTAX ERROR
0F84 F520           2201               MOV    PA0,A
*** __________________________________________^
*** WARNING #A52 IN 2201 (Src\JC.asm, LINE 2201): VALUE HAS BEEN TRUNCATED TO 8 BITS
0F86 22             2202               RET 
                    2203     
                    2204     ;************************************************************************************
                    2205     ;========求A的X%->R0=======
                    2206     ;*  函?名：PERCENT
                    2207     ;*  函?功能: 求A的X%
                    2208     ;*  函?入口变量:A，X
                    2209     ;*  函?出口变量:R0
A51 MACRO ASSEMBLER  JC                                                                   12/18/2017 16:56:46 PAGE    81

                    2210     ;*  调用?程中所用寄存器:A, X，H，R0~R5
                    2211     ;*  调用其他函?列表:UDIV
                    2212     ;*  调用函?列表:no
                    2213     ;*  其他:
                    2214     ;---------------------modify_16_05-------------------------
0F87                2215     PERCENT:  
                    2216                       MULU  X
*** ___________________________________________^
*** ERROR #A9 IN 2216 (Src\JC.asm, LINE 2216): SYNTAX ERROR
0F87                2217                       MOV   C,#100
*** _________________________________________________^
*** ERROR #A40 IN 2217 (Src\JC.asm, LINE 2217): INVALID REGISTER
                    2218                       DIVUW C
*** ___________________________________________^
*** ERROR #A9 IN 2218 (Src\JC.asm, LINE 2218): SYNTAX ERROR
0F87                2219                       MOV   A,C
*** ___________________________________________________^
*** ERROR #A40 IN 2219 (Src\JC.asm, LINE 2219): INVALID REGISTER
                    2220                       CMP   A,#50
*** ___________________________________________^
*** ERROR #A9 IN 2220 (Src\JC.asm, LINE 2220): SYNTAX ERROR
                    2221                       BC    $PERCENT_END
*** ___________________________________________^
*** ERROR #A9 IN 2221 (Src\JC.asm, LINE 2221): SYNTAX ERROR
0F87                2222                       XCH   A,X
*** ___________________________________________________^
*** ERROR #A45 IN 2222 (Src\JC.asm, LINE 2222): UNDEFINED SYMBOL (PASS-2)
0F89 04             2223                       INC   A
0F8A 22             2224                       RET
0F8B                2225     PERCENT_END:
0F8B                2226               XCH   A,X
*** ___________________________________________^
*** ERROR #A45 IN 2226 (Src\JC.asm, LINE 2226): UNDEFINED SYMBOL (PASS-2)
0F8D 22             2227               RET
                    2228     ;---------------------modify_16_05-------------------------
                    2229     ;************************************************************************************             
0F8E                2230     DMPEAK:
0F8E 756000         2231               MOV   MAXVP,#0
*** _________________________________________^
*** WARNING #A52 IN 2231 (Src\JC.asm, LINE 2231): VALUE HAS BEEN TRUNCATED TO 8 BITS
0F91 752000         2232               MOV   PA0,#0
*** _________________________________________^
*** WARNING #A52 IN 2232 (Src\JC.asm, LINE 2232): VALUE HAS BEEN TRUNCATED TO 8 BITS
0F94                2233               MOV   C,#0
*** _________________________________________^
*** ERROR #A40 IN 2233 (Src\JC.asm, LINE 2233): INVALID REGISTER
0F94                2234     DMPEAK1:
0F94                2235                       MOV   A,C
*** ___________________________________________________^
*** ERROR #A40 IN 2235 (Src\JC.asm, LINE 2235): INVALID REGISTER
0F94                2236                       XCH   A,X     
*** ___________________________________________________^
*** ERROR #A45 IN 2236 (Src\JC.asm, LINE 2236): UNDEFINED SYMBOL (PASS-2)
0F96 7400           2237                       MOV   A,#0
                    2238                       ADDW  AX,#BPDATAV
*** ___________________________________________^
*** ERROR #A9 IN 2238 (Src\JC.asm, LINE 2238): SYNTAX ERROR
                    2239                       XCHW  AX,HL
*** ___________________________________________^
*** ERROR #A9 IN 2239 (Src\JC.asm, LINE 2239): SYNTAX ERROR
0F98                2240                       MOV   A,[HL]
*** ___________________________________________________^
*** ____________________________________________________^
*** ______________________________________________________^
*** ERROR #A9 IN 2240 (Src\JC.asm, LINE 2240): SYNTAX ERROR
*** ERROR #A9 IN 2240 (Src\JC.asm, LINE 2240): SYNTAX ERROR
A51 MACRO ASSEMBLER  JC                                                                   12/18/2017 16:56:46 PAGE    82

*** ERROR #A9 IN 2240 (Src\JC.asm, LINE 2240): SYNTAX ERROR
                    2241               CMP   A,PA0
*** ___________________________________^
*** ERROR #A9 IN 2241 (Src\JC.asm, LINE 2241): SYNTAX ERROR
                    2242               BC    $DMPEAK2
*** ___________________________________^
*** ERROR #A9 IN 2242 (Src\JC.asm, LINE 2242): SYNTAX ERROR
0F98 F520           2243               MOV   PA0,A
*** _________________________________________^
*** WARNING #A52 IN 2243 (Src\JC.asm, LINE 2243): VALUE HAS BEEN TRUNCATED TO 8 BITS
0F9A                2244               MOV   A,C
*** ___________________________________________^
*** ERROR #A40 IN 2244 (Src\JC.asm, LINE 2244): INVALID REGISTER
0F9A F560           2245               MOV   MAXVP,A
*** _________________________________________^
*** WARNING #A52 IN 2245 (Src\JC.asm, LINE 2245): VALUE HAS BEEN TRUNCATED TO 8 BITS
0F9C                2246     DMPEAK2:   
0F9C                2247                       INC   C
*** _________________________________________________^
*** ERROR #A40 IN 2247 (Src\JC.asm, LINE 2247): INVALID REGISTER
0F9C                2248                       MOV   A,C
*** ___________________________________________________^
*** ERROR #A40 IN 2248 (Src\JC.asm, LINE 2248): INVALID REGISTER
                    2249               CMP   A,BPPTR
*** ___________________________________^
*** ERROR #A9 IN 2249 (Src\JC.asm, LINE 2249): SYNTAX ERROR
                    2250               BC    $DMPEAK1
*** ___________________________________^
*** ERROR #A9 IN 2250 (Src\JC.asm, LINE 2250): SYNTAX ERROR
0F9C 22             2251               RET
                    2252     ;************************************************************************************
0F9D                2253     ENOISE:
0F9D E547           2254                   MOV       A,BPPTR
*** ___________________________________________________^
*** WARNING #A52 IN 2254 (Src\JC.asm, LINE 2254): VALUE HAS BEEN TRUNCATED TO 8 BITS
                    2255               CMP   A,#3
*** ___________________________________^
*** ERROR #A9 IN 2255 (Src\JC.asm, LINE 2255): SYNTAX ERROR
                    2256               BC    $ENOISE3
*** ___________________________________^
*** ERROR #A9 IN 2256 (Src\JC.asm, LINE 2256): SYNTAX ERROR
0F9F                2257     ENOISE4:   
                    2258                       SUB   A,#3
*** ___________________________________________^
*** ERROR #A9 IN 2258 (Src\JC.asm, LINE 2258): SYNTAX ERROR
0F9F                2259                   XCH       A,X
*** ___________________________________________________^
*** ERROR #A45 IN 2259 (Src\JC.asm, LINE 2259): UNDEFINED SYMBOL (PASS-2)
0FA1 7400           2260                   MOV       A,#0
                    2261                   ADDW      AX,#BPDATAV
*** _______________________________________^
*** ERROR #A9 IN 2261 (Src\JC.asm, LINE 2261): SYNTAX ERROR
                    2262                   MOVW      HL,AX
*** _______________________________________^
*** ERROR #A9 IN 2262 (Src\JC.asm, LINE 2262): SYNTAX ERROR
0FA3                2263                   MOV       A,[HL+2]
*** ___________________________________________________^
*** ____________________________________________________^
*** ________________________________________________________^
*** ERROR #A9 IN 2263 (Src\JC.asm, LINE 2263): SYNTAX ERROR
*** ERROR #A9 IN 2263 (Src\JC.asm, LINE 2263): SYNTAX ERROR
*** ERROR #A9 IN 2263 (Src\JC.asm, LINE 2263): SYNTAX ERROR
0FA3 F520           2264               MOV   PA0,A      
*** _________________________________________^
*** WARNING #A52 IN 2264 (Src\JC.asm, LINE 2264): VALUE HAS BEEN TRUNCATED TO 8 BITS
0FA5                2265               MOV   A,[HL+1]
A51 MACRO ASSEMBLER  JC                                                                   12/18/2017 16:56:46 PAGE    83

*** ___________________________________________^
*** ____________________________________________^
*** ________________________________________________^
*** ERROR #A9 IN 2265 (Src\JC.asm, LINE 2265): SYNTAX ERROR
*** ERROR #A9 IN 2265 (Src\JC.asm, LINE 2265): SYNTAX ERROR
*** ERROR #A9 IN 2265 (Src\JC.asm, LINE 2265): SYNTAX ERROR
0FA5 F521           2266               MOV   PA1,A           
*** _________________________________________^
*** WARNING #A52 IN 2266 (Src\JC.asm, LINE 2266): VALUE HAS BEEN TRUNCATED TO 8 BITS
0FA7                2267               MOV   A,[HL]
*** ___________________________________________^
*** ____________________________________________^
*** ______________________________________________^
*** ERROR #A9 IN 2267 (Src\JC.asm, LINE 2267): SYNTAX ERROR
*** ERROR #A9 IN 2267 (Src\JC.asm, LINE 2267): SYNTAX ERROR
*** ERROR #A9 IN 2267 (Src\JC.asm, LINE 2267): SYNTAX ERROR
0FA7 F522           2268               MOV   PA2,A         
*** _________________________________________^
*** WARNING #A52 IN 2268 (Src\JC.asm, LINE 2268): VALUE HAS BEEN TRUNCATED TO 8 BITS
0FA9 E521           2269               MOV   A,PA1 
*** ___________________________________________^
*** WARNING #A52 IN 2269 (Src\JC.asm, LINE 2269): VALUE HAS BEEN TRUNCATED TO 8 BITS
                    2270               CMP   A,PA0
*** ___________________________________^
*** ERROR #A9 IN 2270 (Src\JC.asm, LINE 2270): SYNTAX ERROR
                    2271               BZ    $ENOISE3  
*** ___________________________________^
*** ERROR #A9 IN 2271 (Src\JC.asm, LINE 2271): SYNTAX ERROR
                    2272               BC    $ENOISE1
*** ___________________________________^
*** ERROR #A9 IN 2272 (Src\JC.asm, LINE 2272): SYNTAX ERROR
                    2273               CMP   A,PA2
*** ___________________________________^
*** ERROR #A9 IN 2273 (Src\JC.asm, LINE 2273): SYNTAX ERROR
                    2274               BZ    $ENOISE3        
*** ___________________________________^
*** ERROR #A9 IN 2274 (Src\JC.asm, LINE 2274): SYNTAX ERROR
                    2275               BC    $ENOISE3
*** ___________________________________^
*** ERROR #A9 IN 2275 (Src\JC.asm, LINE 2275): SYNTAX ERROR
0FAB E520           2276               MOV   A,PA0
*** ___________________________________________^
*** WARNING #A52 IN 2276 (Src\JC.asm, LINE 2276): VALUE HAS BEEN TRUNCATED TO 8 BITS
0FAD 2522           2277               ADD   A,PA2
*** ___________________________________________^
*** WARNING #A52 IN 2277 (Src\JC.asm, LINE 2277): VALUE HAS BEEN TRUNCATED TO 8 BITS
0FAF F523           2278               MOV   PA3,A
*** _________________________________________^
*** WARNING #A52 IN 2278 (Src\JC.asm, LINE 2278): VALUE HAS BEEN TRUNCATED TO 8 BITS
                    2279               RORC  A,1
*** ___________________________________^
*** ERROR #A9 IN 2279 (Src\JC.asm, LINE 2279): SYNTAX ERROR
                    2280               ROR   A,1
*** ___________________________________^
*** ERROR #A9 IN 2280 (Src\JC.asm, LINE 2280): SYNTAX ERROR
                    2281               CLR1  A.7
*** ___________________________________^
*** ERROR #A9 IN 2281 (Src\JC.asm, LINE 2281): SYNTAX ERROR
0FB1 F520           2282               MOV   PA0,A
*** _________________________________________^
*** WARNING #A52 IN 2282 (Src\JC.asm, LINE 2282): VALUE HAS BEEN TRUNCATED TO 8 BITS
0FB3 E523           2283               MOV   A,PA3
*** ___________________________________________^
*** WARNING #A52 IN 2283 (Src\JC.asm, LINE 2283): VALUE HAS BEEN TRUNCATED TO 8 BITS
                    2284               SUB   A,PA0           
*** ___________________________________^
A51 MACRO ASSEMBLER  JC                                                                   12/18/2017 16:56:46 PAGE    84

*** ERROR #A9 IN 2284 (Src\JC.asm, LINE 2284): SYNTAX ERROR
                    2285               CMP   A,PA1
*** ___________________________________^
*** ERROR #A9 IN 2285 (Src\JC.asm, LINE 2285): SYNTAX ERROR
                    2286               BNC   $ENOISE3      
*** ___________________________________^
*** ERROR #A9 IN 2286 (Src\JC.asm, LINE 2286): SYNTAX ERROR
0FB5                2287     ENOISE2:  
0FB5                2288                       MOV   A,[HL+2]
*** ___________________________________________________^
*** ____________________________________________________^
*** ________________________________________________________^
*** ERROR #A9 IN 2288 (Src\JC.asm, LINE 2288): SYNTAX ERROR
*** ERROR #A9 IN 2288 (Src\JC.asm, LINE 2288): SYNTAX ERROR
*** ERROR #A9 IN 2288 (Src\JC.asm, LINE 2288): SYNTAX ERROR
0FB5                2289                       MOV   [HL+1],A
*** _________________________________________________^
*** __________________________________________________^
*** ______________________________________________________^
*** ERROR #A9 IN 2289 (Src\JC.asm, LINE 2289): SYNTAX ERROR
*** ERROR #A9 IN 2289 (Src\JC.asm, LINE 2289): SYNTAX ERROR
*** ERROR #A9 IN 2289 (Src\JC.asm, LINE 2289): SYNTAX ERROR
0FB5 E547           2290                       MOV   A,BPPTR
*** ___________________________________________________^
*** WARNING #A52 IN 2290 (Src\JC.asm, LINE 2290): VALUE HAS BEEN TRUNCATED TO 8 BITS
                    2291                       SUB   A,#3
*** ___________________________________________^
*** ERROR #A9 IN 2291 (Src\JC.asm, LINE 2291): SYNTAX ERROR
0FB7                2292                       MOV   X,A
*** _________________________________________________^
*** ERROR #A45 IN 2292 (Src\JC.asm, LINE 2292): UNDEFINED SYMBOL (PASS-2)
0FB9 7400           2293                       MOV   A,#0
                    2294                       ADDW  AX,#BPDATAP
*** ___________________________________________^
*** ERROR #A9 IN 2294 (Src\JC.asm, LINE 2294): SYNTAX ERROR
                    2295                       MOVW  HL,AX
*** ___________________________________________^
*** ERROR #A9 IN 2295 (Src\JC.asm, LINE 2295): SYNTAX ERROR
0FBB                2296                       MOV   A,[HL+2]
*** ___________________________________________________^
*** ____________________________________________________^
*** ________________________________________________________^
*** ERROR #A9 IN 2296 (Src\JC.asm, LINE 2296): SYNTAX ERROR
*** ERROR #A9 IN 2296 (Src\JC.asm, LINE 2296): SYNTAX ERROR
*** ERROR #A9 IN 2296 (Src\JC.asm, LINE 2296): SYNTAX ERROR
0FBB                2297                       MOV   [HL+1],A   
*** _________________________________________________^
*** __________________________________________________^
*** ______________________________________________________^
*** ERROR #A9 IN 2297 (Src\JC.asm, LINE 2297): SYNTAX ERROR
*** ERROR #A9 IN 2297 (Src\JC.asm, LINE 2297): SYNTAX ERROR
*** ERROR #A9 IN 2297 (Src\JC.asm, LINE 2297): SYNTAX ERROR
0FBB 1547           2298               DEC   BPPTR         
*** _________________________________________^
*** WARNING #A52 IN 2298 (Src\JC.asm, LINE 2298): VALUE HAS BEEN TRUNCATED TO 8 BITS
                    2299               ;INC   UNMEASR        
                    2300               BR    $ENOISE3
*** ___________________________________^
*** ERROR #A9 IN 2300 (Src\JC.asm, LINE 2300): SYNTAX ERROR
0FBD                2301     ENOISE1:
                    2302                   CMP       A,PA2
*** _______________________________________^
*** ERROR #A9 IN 2302 (Src\JC.asm, LINE 2302): SYNTAX ERROR
                    2303               BNC   $ENOISE3         
*** ___________________________________^
*** ERROR #A9 IN 2303 (Src\JC.asm, LINE 2303): SYNTAX ERROR
A51 MACRO ASSEMBLER  JC                                                                   12/18/2017 16:56:46 PAGE    85

0FBD E522           2304               MOV   A,PA2
*** ___________________________________________^
*** WARNING #A52 IN 2304 (Src\JC.asm, LINE 2304): VALUE HAS BEEN TRUNCATED TO 8 BITS
0FBF 2520           2305               ADD   A,PA0
*** ___________________________________________^
*** WARNING #A52 IN 2305 (Src\JC.asm, LINE 2305): VALUE HAS BEEN TRUNCATED TO 8 BITS
                    2306               RORC  A,1
*** ___________________________________^
*** ERROR #A9 IN 2306 (Src\JC.asm, LINE 2306): SYNTAX ERROR
                    2307               ROR   A,1
*** ___________________________________^
*** ERROR #A9 IN 2307 (Src\JC.asm, LINE 2307): SYNTAX ERROR
                    2308               CLR1  A.7
*** ___________________________________^
*** ERROR #A9 IN 2308 (Src\JC.asm, LINE 2308): SYNTAX ERROR
0FC1 3400           2309               ADDC  A,#0
                    2310               CMP   A,PA1
*** ___________________________________^
*** ERROR #A9 IN 2310 (Src\JC.asm, LINE 2310): SYNTAX ERROR
                    2311               BZ    $ENOISE3
*** ___________________________________^
*** ERROR #A9 IN 2311 (Src\JC.asm, LINE 2311): SYNTAX ERROR
                    2312               BNC   $ENOISE2         
*** ___________________________________^
*** ERROR #A9 IN 2312 (Src\JC.asm, LINE 2312): SYNTAX ERROR
0FC3                2313     ENOISE3:   
0FC3 22             2314                       RET
                    2315     ;//**************************************************************************
                    2316     
                    2317     ;************************************************************************************
0FC4                2318     CALSYS:
0FC4 E560           2319                   MOV       A,MAXVP
*** ___________________________________________________^
*** WARNING #A52 IN 2319 (Src\JC.asm, LINE 2319): VALUE HAS BEEN TRUNCATED TO 8 BITS
0FC6 FC             2320                   MOV       R4,A
                    2321                   CMP       A,#2
*** _______________________________________^
*** ERROR #A9 IN 2321 (Src\JC.asm, LINE 2321): SYNTAX ERROR
                    2322               BC    $CALSYS4    ;收缩压计算的前提1：MAXVP>1
*** ___________________________________^
*** ERROR #A9 IN 2322 (Src\JC.asm, LINE 2322): SYNTAX ERROR
0FC7                2323     CALSYS0:
0FC7 EC             2324                       MOV   A,R4
0FC8 14             2325                       DEC   A
0FC9 FC             2326                       MOV   R4,A
                    2327               CMP   A,#4         ;进行循环比较,?非?据满足一定条?,否则到?据指针<=3
*** ___________________________________^
*** ERROR #A9 IN 2327 (Src\JC.asm, LINE 2327): SYNTAX ERROR
                    2328               BC    $CALSYS1     ;当?据不满足条?,且?据指针<=3,跳出到CALSYS1处理
*** ___________________________________^
*** ERROR #A9 IN 2328 (Src\JC.asm, LINE 2328): SYNTAX ERROR
0FCA                2329               MOV   X,A
*** _________________________________________^
*** ERROR #A45 IN 2329 (Src\JC.asm, LINE 2329): UNDEFINED SYMBOL (PASS-2)
0FCC                2330               XCH   A,X
*** ___________________________________________^
*** ERROR #A45 IN 2330 (Src\JC.asm, LINE 2330): UNDEFINED SYMBOL (PASS-2)
0FCE 7400           2331               MOV   A,#0
                    2332               ADDW  AX,#BPDATAV
*** ___________________________________^
*** ERROR #A9 IN 2332 (Src\JC.asm, LINE 2332): SYNTAX ERROR
                    2333               SUBW  AX,#3   
*** ___________________________________^
*** ERROR #A9 IN 2333 (Src\JC.asm, LINE 2333): SYNTAX ERROR
                    2334               MOVW  HL,AX   
*** ___________________________________^
A51 MACRO ASSEMBLER  JC                                                                   12/18/2017 16:56:46 PAGE    86

*** ERROR #A9 IN 2334 (Src\JC.asm, LINE 2334): SYNTAX ERROR
0FD0 E520           2335               MOV   A,PA0
*** ___________________________________________^
*** WARNING #A52 IN 2335 (Src\JC.asm, LINE 2335): VALUE HAS BEEN TRUNCATED TO 8 BITS
0FD2 04             2336               INC   A
                    2337               CMP   A,[HL+3]   ;从脉动?据队列中取?,与R0进行比较
*** ___________________________________^
*** ___________________________________________^
*** ________________________________________________^
*** ERROR #A9 IN 2337 (Src\JC.asm, LINE 2337): SYNTAX ERROR
*** ERROR #A3 IN 2337 (Src\JC.asm, LINE 2337): ILLEGAL CHARACTER
*** ERROR #A3 IN 2337 (Src\JC.asm, LINE 2337): ILLEGAL CHARACTER
                    2338               BC    $CALSYS0
*** ___________________________________^
*** ERROR #A9 IN 2338 (Src\JC.asm, LINE 2338): SYNTAX ERROR
                    2339               CMP   A,[HL+2]
*** ___________________________________^
*** ___________________________________________^
*** ________________________________________________^
*** ERROR #A9 IN 2339 (Src\JC.asm, LINE 2339): SYNTAX ERROR
*** ERROR #A3 IN 2339 (Src\JC.asm, LINE 2339): ILLEGAL CHARACTER
*** ERROR #A3 IN 2339 (Src\JC.asm, LINE 2339): ILLEGAL CHARACTER
                    2340               BC    $CALSYS0
*** ___________________________________^
*** ERROR #A9 IN 2340 (Src\JC.asm, LINE 2340): SYNTAX ERROR
                    2341               CMP   A,[HL+1]
*** ___________________________________^
*** ___________________________________________^
*** ________________________________________________^
*** ERROR #A9 IN 2341 (Src\JC.asm, LINE 2341): SYNTAX ERROR
*** ERROR #A3 IN 2341 (Src\JC.asm, LINE 2341): ILLEGAL CHARACTER
*** ERROR #A3 IN 2341 (Src\JC.asm, LINE 2341): ILLEGAL CHARACTER
                    2342               BC    $CALSYS0
*** ___________________________________^
*** ERROR #A9 IN 2342 (Src\JC.asm, LINE 2342): SYNTAX ERROR
                    2343               CMP   A,[HL];跳出循环的前提：
*** ___________________________________^
*** ___________________________________________^
*** ______________________________________________^
*** ERROR #A9 IN 2343 (Src\JC.asm, LINE 2343): SYNTAX ERROR
*** ERROR #A3 IN 2343 (Src\JC.asm, LINE 2343): ILLEGAL CHARACTER
*** ERROR #A3 IN 2343 (Src\JC.asm, LINE 2343): ILLEGAL CHARACTER
                    2344               BC    $CALSYS0    ;BPDATAV[X],[X-1],[X-2],[X-3]<R0
*** ___________________________________^
*** ERROR #A9 IN 2344 (Src\JC.asm, LINE 2344): SYNTAX ERROR
                    2345               BR    $CALSYS5    ;转入高压插值
*** ___________________________________^
*** ERROR #A9 IN 2345 (Src\JC.asm, LINE 2345): SYNTAX ERROR
0FD3                2346     CALSYS1:   
0FD3 7C00           2347                       MOV   R4,#0           ;从零点开始到3,依次将?据与R0进行比较
0FD5                2348     CALSYS2:
0FD5 EC             2349                       MOV   A,R4
0FD6                2350                       XCH   A,X
*** ___________________________________________________^
*** ERROR #A45 IN 2350 (Src\JC.asm, LINE 2350): UNDEFINED SYMBOL (PASS-2)
0FD8 7400           2351                       MOV   A,#0
                    2352                       ADDW  AX,#BPDATAV
*** ___________________________________________^
*** ERROR #A9 IN 2352 (Src\JC.asm, LINE 2352): SYNTAX ERROR
                    2353                       MOVW  HL,AX
*** ___________________________________________^
*** ERROR #A9 IN 2353 (Src\JC.asm, LINE 2353): SYNTAX ERROR
0FDA E520           2354                       MOV   A,PA0
*** ___________________________________________________^
*** WARNING #A52 IN 2354 (Src\JC.asm, LINE 2354): VALUE HAS BEEN TRUNCATED TO 8 BITS
                    2355               CMP   A,[HL]  ;跳出循环的条?: 1. BPDATAV[X]<=R0 2. BPDATAV[X+1]>=R0
A51 MACRO ASSEMBLER  JC                                                                   12/18/2017 16:56:46 PAGE    87

*** ___________________________________^
*** ___________________________________________^
*** ______________________________________________^
*** ERROR #A9 IN 2355 (Src\JC.asm, LINE 2355): SYNTAX ERROR
*** ERROR #A3 IN 2355 (Src\JC.asm, LINE 2355): ILLEGAL CHARACTER
*** ERROR #A3 IN 2355 (Src\JC.asm, LINE 2355): ILLEGAL CHARACTER
                    2356               BC    $CALSYS3    ;
*** ___________________________________^
*** ERROR #A9 IN 2356 (Src\JC.asm, LINE 2356): SYNTAX ERROR
                    2357               CMP   A,[HL+1]
*** ___________________________________^
*** ___________________________________________^
*** ________________________________________________^
*** ERROR #A9 IN 2357 (Src\JC.asm, LINE 2357): SYNTAX ERROR
*** ERROR #A3 IN 2357 (Src\JC.asm, LINE 2357): ILLEGAL CHARACTER
*** ERROR #A3 IN 2357 (Src\JC.asm, LINE 2357): ILLEGAL CHARACTER
                    2358               BC    $CALSYS5
*** ___________________________________^
*** ERROR #A9 IN 2358 (Src\JC.asm, LINE 2358): SYNTAX ERROR
                    2359               BZ    $CALSYS5
*** ___________________________________^
*** ERROR #A9 IN 2359 (Src\JC.asm, LINE 2359): SYNTAX ERROR
0FDC                2360     CALSYS3:   
0FDC EC             2361                       MOV   A,R4
0FDD 04             2362                       INC   A
0FDE FC             2363                       MOV   R4,A
                    2364                       INCW  HL
*** ___________________________________________^
*** ERROR #A9 IN 2364 (Src\JC.asm, LINE 2364): SYNTAX ERROR
                    2365               CMP   A,#4
*** ___________________________________^
*** ERROR #A9 IN 2365 (Src\JC.asm, LINE 2365): SYNTAX ERROR
                    2366               BC    $CALSYS2
*** ___________________________________^
*** ERROR #A9 IN 2366 (Src\JC.asm, LINE 2366): SYNTAX ERROR
0FDF                2367     CALSYS4:   
0FDF 756300         2368                       MOV   SYSL,#0
*** _________________________________________________^
*** WARNING #A52 IN 2368 (Src\JC.asm, LINE 2368): VALUE HAS BEEN TRUNCATED TO 8 BITS
0FE2 22             2369               RET            ;未找到高压点,SYS=0,退出
                    2370                   ;高压插值
0FE3                2371     CALSYS5:
0FE3                2372                       CALL  !INSERT
*** _________________________________________________^
*** __________________________________________________^
*** ERROR #A9 IN 2372 (Src\JC.asm, LINE 2372): SYNTAX ERROR
*** ERROR #A9 IN 2372 (Src\JC.asm, LINE 2372): SYNTAX ERROR
0FE3 E520           2373                       MOV   A,PA0     ;X保存高压点的位置
*** ___________________________________________________^
*** WARNING #A52 IN 2373 (Src\JC.asm, LINE 2373): VALUE HAS BEEN TRUNCATED TO 8 BITS
0FE5 F563           2374               MOV   SYSL,A
*** _________________________________________^
*** WARNING #A52 IN 2374 (Src\JC.asm, LINE 2374): VALUE HAS BEEN TRUNCATED TO 8 BITS
0FE7 22             2375               RET            ;找到高压点,退出
                    2376     ;***********************************************************************************
                    2377             
                    2378     END
A51 MACRO ASSEMBLER  JC                                                                   12/18/2017 16:56:46 PAGE    88

SYMBOL TABLE LISTING
------ ----- -------


N A M E                    T Y P E  V A L U E   ATTRIBUTES

AAAAAA. . . . . . . . . .  C ADDR   0D81H   A   
AACALV11. . . . . . . . .  C ADDR   0D0DH   A   
ABS1. . . . . . . . . . .  C ADDR   0E03H   A   
ABSOLUT . . . . . . . . .  C ADDR   0C89H   A   
ACALV1. . . . . . . . . .  C ADDR   0CF0H   A   
ACALV11 . . . . . . . . .  C ADDR   0CF8H   A   
ACALV12 . . . . . . . . .  C ADDR   0D0FH   A   
ACALV13 . . . . . . . . .  C ADDR   0D14H   A   
ACALV14 . . . . . . . . .  C ADDR   0D16H   A   
ACALV15 . . . . . . . . .  C ADDR   0D38H   A   
ACALV15A. . . . . . . . .  C ADDR   0D34H   A   
ACALV2. . . . . . . . . .  C ADDR   0D3CH   A   
ACALV2A . . . . . . . . .  C ADDR   0D38H   A   
ACALV2S . . . . . . . . .  C ADDR   0D42H   A   
ACALV3. . . . . . . . . .  C ADDR   0D4BH   A   
ACALV3A . . . . . . . . .  C ADDR   0D09H   A   
ACALV3S . . . . . . . . .  C ADDR   0D4EH   A   
ACALVAVG. . . . . . . . .  C ADDR   0CE0H   A   
ADDW. . . . . . . . . . .    ----   -----       
ADSSBS0 . . . . . . . . .  N NUMB   FE78H   A   
ADSSBS1 . . . . . . . . .  N NUMB   FE76H   A   
ADSSBS2 . . . . . . . . .  N NUMB   FE77H   A   
AGITT . . . . . . . . . .  N NUMB   FE6EH   A   
AX. . . . . . . . . . . .    ----   -----       
B . . . . . . . . . . . .  D ADDR   00F0H   A   
BANK_ADDR_ERROR . . . . .  N NUMB   FFFFH   A   
BANK_BLC_ERROR. . . . . .  N NUMB   00FFH   A   
BASEDT. . . . . . . . . .  N NUMB   FE96H   A   
BASEDTH . . . . . . . . .  N NUMB   FE98H   A   
BASEDTM . . . . . . . . .  N NUMB   FE97H   A   
BATENH. . . . . . . . . .  N NUMB   FE8DH   A   
BATENL. . . . . . . . . .  N NUMB   FE8CH   A   
BC. . . . . . . . . . . .    ----   -----       
BCDB. . . . . . . . . . .  C ADDR   0BDFH   A   
BEGINPH . . . . . . . . .  N NUMB   FE4AH   A   
BEGINPL . . . . . . . . .  N NUMB   FE4BH   A   
BF. . . . . . . . . . . .    ----   -----       
BFLAG . . . . . . . . . .  N NUMB   FE67H   A   
BMODE . . . . . . . . . .  N NUMB   FE66H   A   
BNC . . . . . . . . . . .    ----   -----       
BNUMB . . . . . . . . . .  N NUMB   FE8AH   A   
BNZ . . . . . . . . . . .    ----   -----       
BPADD . . . . . . . . . .  C ADDR   0E3CH   A   
BPADD1. . . . . . . . . .  C ADDR   0E3EH   A   
BPCMPB. . . . . . . . . .  C ADDR   0DA5H   A   
BPCMPB1 . . . . . . . . .  C ADDR   0DB5H   A   
BPCMPB2 . . . . . . . . .  C ADDR   0DB8H   A   
BPCMPB3 . . . . . . . . .  C ADDR   0DBBH   A   
BPCMPBA . . . . . . . . .  C ADDR   0DB3H   A   
BPDATAP . . . . . . . . .  N NUMB   FDC0H   A   
BPDATAV . . . . . . . . .  N NUMB   FDA0H   A   
BPLEN . . . . . . . . . .  N NUMB   0020H   A   
BPPTR . . . . . . . . . .  N NUMB   FE47H   A   
BPTR. . . . . . . . . . .  N NUMB   FE49H   A   
BR. . . . . . . . . . . .    ----   -----       
BT. . . . . . . . . . . .    ----   -----       
BUF2H . . . . . . . . . .  N NUMB   FDD0H   A   
BUF2L . . . . . . . . . .  N NUMB   FDB0H   A   
BUFCMP. . . . . . . . . .  C ADDR   0DBEH   A   
BUFCMP0 . . . . . . . . .  C ADDR   0DD4H   A   
A51 MACRO ASSEMBLER  JC                                                                   12/18/2017 16:56:46 PAGE    89

BUFCMP0A. . . . . . . . .  C ADDR   0DD6H   A   
BUFCMP1 . . . . . . . . .  C ADDR   0DD9H   A   
BUFCMP2 . . . . . . . . .  C ADDR   0DDCH   A   
BUFH. . . . . . . . . . .  N NUMB   FD86H   A   
BUFL. . . . . . . . . . .  N NUMB   FD80H   A   
BUFLEN. . . . . . . . . .  N NUMB   0006H   A   
BZ. . . . . . . . . . . .    ----   -----       
CALA. . . . . . . . . . .  C ADDR   0B0BH   A   
CALA01YT. . . . . . . . .  C ADDR   0B14H   A   
CALA1 . . . . . . . . . .  C ADDR   0B14H   A   
CALA2 . . . . . . . . . .  C ADDR   0B1AH   A   
CALA21. . . . . . . . . .  C ADDR   0B1AH   A   
CALA3 . . . . . . . . . .  C ADDR   0B20H   A   
CALA4 . . . . . . . . . .  C ADDR   0B23H   A   
CALA5 . . . . . . . . . .  C ADDR   0B23H   A   
CALA7 . . . . . . . . . .  C ADDR   0B23H   A   
CALBUF2 . . . . . . . . .  C ADDR   0B93H   A   
CALDIA. . . . . . . . . .  C ADDR   0B2DH   A   
CALDIA1 . . . . . . . . .  C ADDR   0B35H   A   
CALDIA2 . . . . . . . . .  C ADDR   0B40H   A   
CALDIA3 . . . . . . . . .  C ADDR   0B47H   A   
CALDIA31. . . . . . . . .  C ADDR   0B4EH   A   
CALDIA32. . . . . . . . .  C ADDR   0B50H   A   
CALDIA4 . . . . . . . . .  C ADDR   0B53H   A   
CALHEART. . . . . . . . .  C ADDR   0B58H   A   
CALHR . . . . . . . . . .  C ADDR   0E08H   A   
CALHR1C . . . . . . . . .  C ADDR   0E0EH   A   
CALHR2C . . . . . . . . .  C ADDR   0E17H   A   
CALHR2C_A . . . . . . . .  C ADDR   0E19H   A   
CALHR3C . . . . . . . . .  C ADDR   0E1DH   A   
CALHRA. . . . . . . . . .  C ADDR   0E60H   A   
CALHRZ. . . . . . . . . .  C ADDR   0E0BH   A   
CALIHB. . . . . . . . . .  C ADDR   0E70H   A   
CALIHB1 . . . . . . . . .  C ADDR   0E73H   A   
CALIHB2 . . . . . . . . .  C ADDR   0E73H   A   
CALIHB3 . . . . . . . . .  C ADDR   0E73H   A   
CALIHB4 . . . . . . . . .  C ADDR   0E73H   A   
CALIHB5 . . . . . . . . .  C ADDR   0E75H   A   
CALPEAK . . . . . . . . .  C ADDR   0F18H   A   
CALSYS. . . . . . . . . .  C ADDR   0FC4H   A   
CALSYS0 . . . . . . . . .  C ADDR   0FC7H   A   
CALSYS1 . . . . . . . . .  C ADDR   0FD3H   A   
CALSYS2 . . . . . . . . .  C ADDR   0FD5H   A   
CALSYS3 . . . . . . . . .  C ADDR   0FDCH   A   
CALSYS4 . . . . . . . . .  C ADDR   0FDFH   A   
CALSYS5 . . . . . . . . .  C ADDR   0FE3H   A   
CALY. . . . . . . . . . .  C ADDR   0D88H   A   
CALY1 . . . . . . . . . .  C ADDR   0D98H   A   
CALY2 . . . . . . . . . .  C ADDR   0DA0H   A   
CALY4 . . . . . . . . . .  C ADDR   0D8CH   A   
CALY5 . . . . . . . . . .  C ADDR   0D90H   A   
CB22. . . . . . . . . . .  C ADDR   0B95H   A   
CB27. . . . . . . . . . .  C ADDR   0BA3H   A   
CHECK . . . . . . . . . .  N NUMB   FE99H   A   
CHGI0 . . . . . . . . . .  N NUMB   FE9CH   A   
CHGI1 . . . . . . . . . .  N NUMB   FE9DH   A   
CHGI2 . . . . . . . . . .  N NUMB   FE9EH   A   
CHGI3 . . . . . . . . . .  N NUMB   FE9FH   A   
CIHBEND . . . . . . . . .  C ADDR   0E79H   A   
CLK1H . . . . . . . . . .  N NUMB   FE71H   A   
CLK1L . . . . . . . . . .  N NUMB   FE70H   A   
CLK2H . . . . . . . . . .  N NUMB   FE73H   A   
CLK2L . . . . . . . . . .  N NUMB   FE72H   A   
CLK3H . . . . . . . . . .  N NUMB   FE75H   A   
CLK3L . . . . . . . . . .  N NUMB   FE74H   A   
CLKFLAG . . . . . . . . .    ----   -----       
A51 MACRO ASSEMBLER  JC                                                                   12/18/2017 16:56:46 PAGE    90

CLOCKFLAG . . . . . . . .    ----   -----       
CLR1. . . . . . . . . . .    ----   -----       
CMP . . . . . . . . . . .    ----   -----       
CMPW. . . . . . . . . . .    ----   -----       
COUNT . . . . . . . . . .  N NUMB   FE44H   A   
COUNT1. . . . . . . . . .  N NUMB   FE45H   A   
COUNT2. . . . . . . . . .  N NUMB   FEABH   A   
COUNT3. . . . . . . . . .  N NUMB   FEACH   A   
CSIDSS. . . . . . . . . .  N NUMB   FB54H   A   
CY. . . . . . . . . . . .  B ADDR   00D0H.7 A   
DATABUF . . . . . . . . .  N NUMB   FE88H   A   
DATACH. . . . . . . . . .  C ADDR   0E1DH   A   
DATACH0 . . . . . . . . .  C ADDR   0E23H   A   
DATACH1 . . . . . . . . .  C ADDR   0E23H   A   
DATACH2 . . . . . . . . .  C ADDR   0E27H   A   
DATACH3 . . . . . . . . .  C ADDR   0E2EH   A   
DATACH4 . . . . . . . . .  C ADDR   0E36H   A   
DATACH5 . . . . . . . . .  C ADDR   0E30H   A   
DATACH9 . . . . . . . . .  C ADDR   0E57H   A   
DBNZ. . . . . . . . . . .    ----   -----       
DC. . . . . . . . . . . .  C ADDR   0BBCH   A   
DC1 . . . . . . . . . . .  C ADDR   0BCEH   A   
DC2 . . . . . . . . . . .  C ADDR   0BD2H   A   
DC3 . . . . . . . . . . .  C ADDR   0BD6H   A   
DC6 . . . . . . . . . . .  C ADDR   0BDEH   A   
DCA . . . . . . . . . . .  C ADDR   0BC2H   A   
DCH1. . . . . . . . . . .  C ADDR   0E57H   A   
DE. . . . . . . . . . . .    ----   -----       
DECW. . . . . . . . . . .    ----   -----       
DEND. . . . . . . . . . .  C ADDR   0B0BH   A   
DIAL. . . . . . . . . . .  N NUMB   FE64H   A   
DIAXISHU. . . . . . . . .  N NUMB   0048H   A   
DIRDN0. . . . . . . . . .  N NUMB   FE6AH   A   
DIRDN1. . . . . . . . . .  N NUMB   FE6BH   A   
DIRUP0. . . . . . . . . .  N NUMB   FE7EH   A   
DIRUP1. . . . . . . . . .  N NUMB   FE7FH   A   
DISPFLAG. . . . . . . . .  N NUMB   FE61H   A   
DISPTIME. . . . . . . . .  N NUMB   FE48H   A   
DIVUW . . . . . . . . . .    ----   -----       
DM. . . . . . . . . . . .  C ADDR   0BB3H   A   
DM1 . . . . . . . . . . .  C ADDR   0BB0H   A   
DMIN. . . . . . . . . . .  N NUMB   FE7DH   A   
DMPEAK. . . . . . . . . .  C ADDR   0F8EH   A   
DMPEAK1 . . . . . . . . .  C ADDR   0F94H   A   
DMPEAK2 . . . . . . . . .  C ADDR   0F9CH   A   
DNCTER. . . . . . . . . .  N NUMB   FE79H   A   
DPEAK . . . . . . . . . .  C ADDR   0DDFH   A   
DPEAK1. . . . . . . . . .  C ADDR   0DF7H   A   
DPEAK2. . . . . . . . . .  C ADDR   0DFBH   A   
DPEAK3. . . . . . . . . .  C ADDR   0DFDH   A   
DPEAK4. . . . . . . . . .  C ADDR   0E00H   A   
DPSPTIME. . . . . . . . .    ----   -----       
DRE . . . . . . . . . . .  C ADDR   0CBAH   A   
DRE1. . . . . . . . . . .  C ADDR   0CC3H   A   
DRE11 . . . . . . . . . .  C ADDR   0CD0H   A   
DRE2. . . . . . . . . . .  C ADDR   0CD2H   A   
DRE3. . . . . . . . . . .  C ADDR   0CD4H   A   
DRE4. . . . . . . . . . .  C ADDR   0CD6H   A   
DRE5. . . . . . . . . . .  C ADDR   0CD9H   A   
DREEND. . . . . . . . . .  C ADDR   0CDFH   A   
DWMULU. . . . . . . . . .  C ADDR   0C29H   A   
ENOISE. . . . . . . . . .  C ADDR   0F9DH   A   
ENOISE1 . . . . . . . . .  C ADDR   0FBDH   A   
ENOISE2 . . . . . . . . .  C ADDR   0FB5H   A   
ENOISE3 . . . . . . . . .  C ADDR   0FC3H   A   
ENOISE4 . . . . . . . . .  C ADDR   0F9FH   A   
A51 MACRO ASSEMBLER  JC                                                                   12/18/2017 16:56:46 PAGE    91

ERR1FLAG. . . . . . . . .    ----   -----       
ERR2FLAG. . . . . . . . .    ----   -----       
ERR3FLAG. . . . . . . . .    ----   -----       
ERR4FLAG. . . . . . . . .    ----   -----       
ERR5FLAG. . . . . . . . .    ----   -----       
FEP . . . . . . . . . . .  N NUMB   0003H   A   
FEP2. . . . . . . . . . .  C ADDR   0AABH   A   
FEPADR. . . . . . . . . .  C ADDR   0AA2H   A   
FEPEND. . . . . . . . . .  C ADDR   0AABH   A   
FFRE. . . . . . . . . . .  N NUMB   0000H   A   
FFRE0 . . . . . . . . . .  C ADDR   0A60H   A   
FFRE1 . . . . . . . . . .  C ADDR   0A60H   A   
FFRE2 . . . . . . . . . .  C ADDR   0A62H   A   
FFRE23. . . . . . . . . .  C ADDR   0A62H   A   
FFRE23A . . . . . . . . .  C ADDR   0A6AH   A   
FFRE24. . . . . . . . . .  C ADDR   0A70H   A   
FFRE3 . . . . . . . . . .  C ADDR   0A7CH   A   
FFRE4 . . . . . . . . . .  C ADDR   0A7FH   A   
FFRE5 . . . . . . . . . .  C ADDR   0A83H   A   
FFRE6 . . . . . . . . . .  C ADDR   0A83H   A   
FFRE7 . . . . . . . . . .  C ADDR   0A85H   A   
FFRE9 . . . . . . . . . .  C ADDR   0A85H   A   
FFREADR . . . . . . . . .  C ADDR   0A5AH   A   
FFREEND . . . . . . . . .  C ADDR   0A89H   A   
FFREEND_C . . . . . . . .  C ADDR   0A9AH   A   
FIRST8. . . . . . . . . .    ----   -----       
FKMODE. . . . . . . . . .  N NUMB   FE3CH   A   
FLAG_STOP_VOIC. . . . . .    ----   -----       
FLAG_TEST . . . . . . . .    ----   -----       
FLASHFIRM_PARAMETER_ERROR  N NUMB   0005H   A   
FLASH_BLOCK_BLANKCHECK. .  N NUMB   0008H   A   
FLASH_BLOCK_ERASE . . . .  N NUMB   0003H   A   
FLASH_BLOCK_VERIFY. . . .  N NUMB   0006H   A   
FLASH_CHECK_FLMD. . . . .  N NUMB   000EH   A   
FLASH_EEPROM_WRITE. . . .  N NUMB   0017H   A   
FLASH_ENV . . . . . . . .  N NUMB   0000H   A   
FLASH_GET_INF . . . . . .  N NUMB   0009H   A   
FLASH_SET_INF . . . . . .  N NUMB   000AH   A   
FLASH_WORD_WRITE. . . . .  N NUMB   0004H   A   
FLCKCNT . . . . . . . . .  N NUMB   FE68H   A   
FLCKSR. . . . . . . . . .  N NUMB   FE2BH   A   
FP. . . . . . . . . . . .  N NUMB   0002H   A   
FPADR . . . . . . . . . .  C ADDR   0A9CH   A   
FPADR1. . . . . . . . . .  C ADDR   0A9FH   A   
FPADR2. . . . . . . . . .  C ADDR   0A9FH   A   
FPADR3. . . . . . . . . .  C ADDR   0A9FH   A   
FPEND . . . . . . . . . .  C ADDR   0AA2H   A   
FRE . . . . . . . . . . .  N NUMB   0001H   A   
FREA1 . . . . . . . . . .  C ADDR   0A92H   A   
FREADR. . . . . . . . . .  C ADDR   0A89H   A   
FREEND. . . . . . . . . .  C ADDR   0A9AH   A   
FTIME . . . . . . . . . .  N NUMB   FE4CH   A   
FULLMAXH. . . . . . . . .  N NUMB   FEA5H   A   
FULLMAXL. . . . . . . . .  N NUMB   FEA4H   A   
FULLMAXM. . . . . . . . .  N NUMB   FEA6H   A   
FUN . . . . . . . . . . .  N NUMB   FE6DH   A   
FUNMOD. . . . . . . . . .  N NUMB   FE4DH   A   
H . . . . . . . . . . . .    ----   -----       
HEARTCNT. . . . . . . . .  N NUMB   FE41H   A   
HL. . . . . . . . . . . .    ----   -----       
HOURFLAG. . . . . . . . .    ----   -----       
HOURNB. . . . . . . . . .  N NUMB   FEB4H   A   
HRBUF . . . . . . . . . .  N NUMB   FD50H   A   
HRBUF1. . . . . . . . . .  N NUMB   FD00H   A   
HREER . . . . . . . . . .    ----   -----       
HREER_1 . . . . . . . . .    ----   -----       
A51 MACRO ASSEMBLER  JC                                                                   12/18/2017 16:56:46 PAGE    92

HRERR . . . . . . . . . .    ----   -----       
HRERR_1 . . . . . . . . .    ----   -----       
HTCOUNT0. . . . . . . . .  C ADDR   0A50H   A   
H_HEART_C . . . . . . . .  N NUMB   FE40H   A   
IHB . . . . . . . . . . .    ----   -----       
INCW. . . . . . . . . . .    ----   -----       
INSERT. . . . . . . . . .  C ADDR   0F4BH   A   
INSERT1 . . . . . . . . .  C ADDR   0F56H   A   
INSERT2 . . . . . . . . .  C ADDR   0F5DH   A   
INSERT3 . . . . . . . . .  C ADDR   0F6AH   A   
INSERT31. . . . . . . . .  C ADDR   0F7CH   A   
INSERT32. . . . . . . . .  C ADDR   0F7CH   A   
INSERT4 . . . . . . . . .  C ADDR   0F7FH   A   
IPTR. . . . . . . . . . .  N NUMB   FE28H   A   
IPTR2 . . . . . . . . . .  N NUMB   FE2AH   A   
IPTR2DH . . . . . . . . .  N NUMB   FEDBH   A   
IPTR2DL . . . . . . . . .  N NUMB   FEDAH   A   
IPTR3H. . . . . . . . . .  N NUMB   FED3H   A   
IPTR3L. . . . . . . . . .  N NUMB   FED2H   A   
IPTRCL. . . . . . . . . .  N NUMB   FED4H   A   
JCDFLAG . . . . . . . . .  N NUMB   FE42H   A   
JCH1. . . . . . . . . . .  C ADDR   0A14H   A   
JCL . . . . . . . . . . .  C ADDR   0A14H   A   
JCL0. . . . . . . . . . .  C ADDR   0A14H   A   
JCL1. . . . . . . . . . .  C ADDR   0A14H   A   
JCL2. . . . . . . . . . .  C ADDR   0A14H   A   
JCL3. . . . . . . . . . .  C ADDR   0A16H   A   
JCL5. . . . . . . . . . .  C ADDR   0A20H   A   
JCL51 . . . . . . . . . .  C ADDR   0A26H   A   
JCL52 . . . . . . . . . .  C ADDR   0A30H   A   
JCL6. . . . . . . . . . .  C ADDR   0A4BH   A   
JCL60 . . . . . . . . . .  C ADDR   0A44H   A   
JCL7. . . . . . . . . . .  C ADDR   0A50H   A   
JCL81 . . . . . . . . . .  C ADDR   0A3DH   A   
JCL98 . . . . . . . . . .  C ADDR   0A54H   A   
JCL99 . . . . . . . . . .  C ADDR   0A5AH   A   
L . . . . . . . . . . . .    ----   -----       
LANGS . . . . . . . . . .  N NUMB   FE7BH   A   
LANGY . . . . . . . . . .  N NUMB   FE7CH   A   
LASTH . . . . . . . . . .  N NUMB   FE3BH   A   
LASTL . . . . . . . . . .  N NUMB   FE3AH   A   
LB. . . . . . . . . . . .  N NUMB   FE7AH   A   
LBR . . . . . . . . . . .  N NUMB   FE8EH   A   
LBR1. . . . . . . . . . .  N NUMB   FE90H   A   
LBVR. . . . . . . . . . .  N NUMB   FE94H   A   
LBVRS . . . . . . . . . .  N NUMB   FEA2H   A   
LDMAXV. . . . . . . . . .  C ADDR   0EBFH   A   
LDMAXVP . . . . . . . . .  C ADDR   0F11H   A   
LDMAXV_0. . . . . . . . .  C ADDR   0EDDH   A   
LDMAXV_1. . . . . . . . .  C ADDR   0EE8H   A   
LDMAXV_1_A. . . . . . . .  C ADDR   0EF0H   A   
LDMAXV_2. . . . . . . . .  C ADDR   0EFAH   A   
LDMAXV_A. . . . . . . . .  C ADDR   0ECDH   A   
LDMAXV_END. . . . . . . .  C ADDR   0F0EH   A   
LDMAXV_END_J. . . . . . .  C ADDR   0F05H   A   
LDMAXV_END_J_0. . . . . .  C ADDR   0F0FH   A   
LDOPTRA . . . . . . . . .  C ADDR   0B7CH   A   
MAXEDH. . . . . . . . . .  N NUMB   FE58H   A   
MAXEDM. . . . . . . . . .  N NUMB   FE57H   A   
MAXEND. . . . . . . . . .  N NUMB   FE56H   A   
MAXH. . . . . . . . . . .  N NUMB   FE35H   A   
MAXL. . . . . . . . . . .  N NUMB   FE34H   A   
MAXPEH. . . . . . . . . .  N NUMB   FE59H   A   
MAXPEM. . . . . . . . . .  N NUMB   FE5BH   A   
MAXPRE. . . . . . . . . .  N NUMB   FE5AH   A   
MAXPRESSUREH. . . . . . .  N NUMB   FECDH   A   
A51 MACRO ASSEMBLER  JC                                                                   12/18/2017 16:56:46 PAGE    93

MAXPRESSUREL. . . . . . .  N NUMB   FECCH   A   
MAXPREUP. . . . . . . . .  C ADDR   0C92H   A   
MAXPRE_CNT. . . . . . . .  N NUMB   FEB8H   A   
MAXSTART. . . . . . . . .  N NUMB   FE50H   A   
MAXSTEP . . . . . . . . .  N NUMB   FE54H   A   
MAXSTH. . . . . . . . . .  N NUMB   FE52H   A   
MAXSTM. . . . . . . . . .  N NUMB   FE51H   A   
MAXSTPH . . . . . . . . .  N NUMB   FE53H   A   
MAXSTPM . . . . . . . . .  N NUMB   FE55H   A   
MAXV072 . . . . . . . . .    ----   -----       
MAXVP . . . . . . . . . .  N NUMB   FE60H   A   
MAXVP_DATE_0. . . . . . .  N NUMB   FEDCH   A   
MAXVP_DATE_1. . . . . . .  N NUMB   FEDDH   A   
MAXVP_DATE_M. . . . . . .  N NUMB   FEDEH   A   
MAXVP_JUDGE_NUM . . . . .  N NUMB   0006H   A   
MEMNB . . . . . . . . . .  N NUMB   FE69H   A   
MEMNBER . . . . . . . . .  N NUMB   FEB3H   A   
MINH. . . . . . . . . . .  N NUMB   FE37H   A   
MINL. . . . . . . . . . .  N NUMB   FE36H   A   
MODECNT . . . . . . . . .  N NUMB   FE4EH   A   
MOONFLAG. . . . . . . . .    ----   -----       
MOVW. . . . . . . . . . .    ----   -----       
MPT . . . . . . . . . . .  N NUMB   FE3DH   A   
MULU. . . . . . . . . . .    ----   -----       
NEGF. . . . . . . . . . .    ----   -----       
NOIHB . . . . . . . . . .  C ADDR   0E79H   A   
NUBSAV. . . . . . . . . .  N NUMB   FE95H   A   
OFFCH . . . . . . . . . .  N NUMB   FE39H   A   
OFFCL . . . . . . . . . .  N NUMB   FE38H   A   
OPTR. . . . . . . . . . .  N NUMB   FE29H   A   
OPTRINC . . . . . . . . .  C ADDR   0B8EH   A   
OPTRM1. . . . . . . . . .  C ADDR   0B8BH   A   
OPTRSUB . . . . . . . . .  C ADDR   0B85H   A   
PA0 . . . . . . . . . . .  N NUMB   FE20H   A   
PA1 . . . . . . . . . . .  N NUMB   FE21H   A   
PA2 . . . . . . . . . . .  N NUMB   FE22H   A   
PA3 . . . . . . . . . . .  N NUMB   FE23H   A   
PA4 . . . . . . . . . . .  N NUMB   FE24H   A   
PA5 . . . . . . . . . . .  N NUMB   FE25H   A   
PA6 . . . . . . . . . . .  N NUMB   FE26H   A   
PA7 . . . . . . . . . . .  N NUMB   FE27H   A   
PA8 . . . . . . . . . . .  N NUMB   FEB6H   A   
PA9 . . . . . . . . . . .  N NUMB   FEB7H   A   
PB0 . . . . . . . . . . .  N NUMB   FE5CH   A   
PB1 . . . . . . . . . . .  N NUMB   FE5DH   A   
PB2 . . . . . . . . . . .  N NUMB   FE5EH   A   
PB3 . . . . . . . . . . .  N NUMB   FE5FH   A   
PCHREND . . . . . . . . .  C ADDR   0ABFH   A   
PDIA. . . . . . . . . . .  N NUMB   FE86H   A   
PEAKPH. . . . . . . . . .  N NUMB   FE35H   A   
PEAKPL. . . . . . . . . .  N NUMB   FE34H   A   
PERCENT . . . . . . . . .  C ADDR   0F87H   A   
PERCENT_END . . . . . . .  C ADDR   0F8BH   A   
PHASE . . . . . . . . . .  N NUMB   FE43H   A   
PHR . . . . . . . . . . .  N NUMB   FE87H   A   
POSTM2. . . . . . . . . .  C ADDR   0AD2H   A   
POSTM3. . . . . . . . . .  C ADDR   0ADEH   A   
POSTM30 . . . . . . . . .  C ADDR   0AE0H   A   
POSTM31 . . . . . . . . .  C ADDR   0AE2H   A   
POSTM32 . . . . . . . . .  C ADDR   0AE7H   A   
POSTM33 . . . . . . . . .  C ADDR   0AE7H   A   
POSTP . . . . . . . . . .  C ADDR   0AABH   A   
POSTP0. . . . . . . . . .  C ADDR   0AB8H   A   
POSTP01 . . . . . . . . .  C ADDR   0AADH   A   
POSTP02 . . . . . . . . .  C ADDR   0AB0H   A   
POSTP03 . . . . . . . . .  C ADDR   0AB5H   A   
A51 MACRO ASSEMBLER  JC                                                                   12/18/2017 16:56:46 PAGE    94

POSTP0YT. . . . . . . . .  C ADDR   0AB8H   A   
POSTP1. . . . . . . . . .  C ADDR   0AC1H   A   
POSTP2. . . . . . . . . .  C ADDR   0AC1H   A   
POSTP3. . . . . . . . . .  C ADDR   0AC1H   A   
POSTPA. . . . . . . . . .  C ADDR   0AADH   A   
POSTPB. . . . . . . . . .  C ADDR   0AADH   A   
POSTPM4 . . . . . . . . .  C ADDR   0AE9H   A   
POSTPM5 . . . . . . . . .  C ADDR   0AF1H   A   
POSTPM6 . . . . . . . . .  C ADDR   0AF9H   A   
POSTPMA . . . . . . . . .  C ADDR   0AFDH   A   
POSTPMB . . . . . . . . .  C ADDR   0AFFH   A   
POSTPMC . . . . . . . . .  C ADDR   0B0BH   A   
PPRO. . . . . . . . . . .  N NUMB   FE65H   A   
PR2 . . . . . . . . . . .  N NUMB   FEBEH   A   
PR3 . . . . . . . . . . .  N NUMB   FEBDH   A   
PR4 . . . . . . . . . . .  N NUMB   FEBCH   A   
PR5 . . . . . . . . . . .  N NUMB   FEBBH   A   
PR6 . . . . . . . . . . .  N NUMB   FEBAH   A   
PSTATE1 . . . . . . . . .  N NUMB   FE8FH   A   
PSYS. . . . . . . . . . .  N NUMB   FE85H   A   
PWIDTHH . . . . . . . . .  N NUMB   FE33H   A   
PWIDTHL . . . . . . . . .  N NUMB   FE32H   A   
PWMF. . . . . . . . . . .  N NUMB   FE3EH   A   
RAM100. . . . . . . . . .  N NUMB   F400H   A   
RATIOTMP. . . . . . . . .  N NUMB   FE62H   A   
RETRY1. . . . . . . . . .  C ADDR   0ABFH   A   
ROLC. . . . . . . . . . .    ----   -----       
ROR . . . . . . . . . . .    ----   -----       
RORC. . . . . . . . . . .    ----   -----       
RTCOUNTL. . . . . . . . .  N NUMB   FE46H   A   
SBEEP . . . . . . . . . .  N NUMB   FE3FH   A   
SBFLAG. . . . . . . . . .    ----   -----       
SDAY. . . . . . . . . . .  N NUMB   FE82H   A   
SET1. . . . . . . . . . .    ----   -----       
SHOUR . . . . . . . . . .  N NUMB   FE83H   A   
SMIN. . . . . . . . . . .  N NUMB   FE84H   A   
SMONTH. . . . . . . . . .  N NUMB   FE81H   A   
SSEC. . . . . . . . . . .  N NUMB   FE6CH   A   
SSECA . . . . . . . . . .  N NUMB   FEA0H   A   
SSECB . . . . . . . . . .  N NUMB   FEA1H   A   
START . . . . . . . . . .  C ADDR   0A00H   A   
STARTPH . . . . . . . . .  N NUMB   FE37H   A   
STARTPL . . . . . . . . .  N NUMB   FE36H   A   
STOREH. . . . . . . . . .  N NUMB   FE9AH   A   
SUB . . . . . . . . . . .    ----   -----       
SUBC. . . . . . . . . . .    ----   -----       
SUBW. . . . . . . . . . .    ----   -----       
SUNFLAG . . . . . . . . .    ----   -----       
SYEAR . . . . . . . . . .  N NUMB   FE80H   A   
SYSL. . . . . . . . . . .  N NUMB   FE63H   A   
TBEEP . . . . . . . . . .  N NUMB   FE2DH   A   
TEMV. . . . . . . . . . .  N NUMB   FE8BH   A   
TLB . . . . . . . . . . .  N NUMB   FE2EH   A   
TOBP. . . . . . . . . . .  C ADDR   0E7AH   A   
TOBP0 . . . . . . . . . .  C ADDR   0E83H   A   
TOBP01. . . . . . . . . .  C ADDR   0E8CH   A   
TOBP1 . . . . . . . . . .  C ADDR   0EB0H   A   
TOBP2 . . . . . . . . . .  C ADDR   0EBEH   A   
TOBUF2. . . . . . . . . .  C ADDR   0B6DH   A   
TZH . . . . . . . . . . .  C ADDR   0B6CH   A   
TZH_03Z . . . . . . . . .  C ADDR   0A3DH   A   
TZH_07. . . . . . . . . .  C ADDR   0B69H   A   
UDIV. . . . . . . . . . .  C ADDR   0BE9H   A   
UDIV1 . . . . . . . . . .  C ADDR   0BF6H   A   
UDIV2 . . . . . . . . . .  C ADDR   0BF6H   A   
UDIV3 . . . . . . . . . .  C ADDR   0C0AH   A   
A51 MACRO ASSEMBLER  JC                                                                   12/18/2017 16:56:46 PAGE    95

UDIV4 . . . . . . . . . .  C ADDR   0C14H   A   
UDIV6 . . . . . . . . . .  C ADDR   0C14H   A   
UDIV7 . . . . . . . . . .  C ADDR   0C1BH   A   
UDIV9 . . . . . . . . . .  C ADDR   0C22H   A   
UMUL. . . . . . . . . . .  C ADDR   0C72H   A   
UPCTER. . . . . . . . . .  N NUMB   FE2FH   A   
UPEND1. . . . . . . . . .  C ADDR   0CB0H   A   
UPEND2. . . . . . . . . .  C ADDR   0CB3H   A   
UR6DSS. . . . . . . . . .  N NUMB   FEC6H   A   
UR6DSS1 . . . . . . . . .  N NUMB   FEC7H   A   
UR6DSS2 . . . . . . . . .  N NUMB   FEC8H   A   
UR6DSS3 . . . . . . . . .  N NUMB   FEC9H   A   
UR6DSS4 . . . . . . . . .  N NUMB   FECAH   A   
UR6RDSS . . . . . . . . .  N NUMB   FB66H   A   
UR6RLEN . . . . . . . . .  N NUMB   FEAAH   A   
UR6TDSS . . . . . . . . .  N NUMB   FED0H   A   
UR6TDSSH. . . . . . . . .  N NUMB   FED1H   A   
UR6TLEN . . . . . . . . .  N NUMB   FEC4H   A   
UR6TLEN1. . . . . . . . .  N NUMB   FEC5H   A   
VAVG. . . . . . . . . . .  N NUMB   FE4FH   A   
VECT. . . . . . . . . . .    ----   -----       
VOID. . . . . . . . . . .    ----   -----       
VPARH . . . . . . . . . .  C ADDR   0D85H   A   
VPARL . . . . . . . . . .  C ADDR   0D82H   A   
WCUT. . . . . . . . . . .  N NUMB   FE2EH   A   
WRITEADDRESS. . . . . . .  N NUMB   F770H   A   
WRITEBANK . . . . . . . .  N NUMB   F772H   A   
X . . . . . . . . . . . .    ----   -----       
XCHW. . . . . . . . . . .    ----   -----       
Y . . . . . . . . . . . .  N NUMB   FE2CH   A   
YBUF. . . . . . . . . . .  N NUMB   F400H   A   
YPTR. . . . . . . . . . .  N NUMB   FECBH   A   
YTT1. . . . . . . . . . .  C ADDR   0F4AH   A   
ZDCTER. . . . . . . . . .  N NUMB   FE6FH   A   
ZEROFLAG. . . . . . . . .    ----   -----       
ZEROH . . . . . . . . . .  N NUMB   FE31H   A   
ZEROL . . . . . . . . . .  N NUMB   FE30H   A   
ZREOTSHH. . . . . . . . .  N NUMB   FEA9H   A   
ZREOTSHL. . . . . . . . .  N NUMB   FEA8H   A   


REGISTER BANK(S) USED: 0 


ASSEMBLY COMPLETE.  425 WARNING(S), 1248 ERROR(S)
